Archive member included because of file (symbol)

C:\devkitPro\libnds\lib\libnds9.a(initSystem.o)
                              c:/devkitpro/devkitarm/bin/../lib/gcc/arm-eabi/4.1.2/../../../../arm-eabi/lib/ds_arm9_crt0.o (initSystem)
C:\devkitPro\libnds\lib\libnds9.a(touch.o)
                              ./main.o (touchReadXY)
C:\devkitPro\libnds\lib\libnds9.a(video.o)
                              ./main.o (vramSetBankA)
C:\devkitPro\libnds\lib\libnds9.a(interrupts.o)
                              ./main.o (irqSet)
C:\devkitPro\libnds\lib\libnds9.a(biosCalls.o)
                              ./main.o (swiDelay)
C:\devkitPro\libnds\lib\libnds9.a(interruptDispatcher.o)
                              C:\devkitPro\libnds\lib\libnds9.a(interrupts.o) (IntrMain)
C:\devkitPro\devkitARM\arm-eabi\lib\libstdc++.a(del_op.o)
                              ./main.o (operator delete(void*))
C:\devkitPro\devkitARM\arm-eabi\lib\libstdc++.a(eh_arm.o)
                              ./main.o (__cxa_end_cleanup)
C:\devkitPro\devkitARM\arm-eabi\lib\libstdc++.a(eh_aux_runtime.o)
                              C:\devkitPro\devkitARM\arm-eabi\lib\libstdc++.a(eh_arm.o) (__cxa_bad_typeid)
C:\devkitPro\devkitARM\arm-eabi\lib\libstdc++.a(eh_globals.o)
                              C:\devkitPro\devkitARM\arm-eabi\lib\libstdc++.a(eh_arm.o) (__cxa_get_globals)
C:\devkitPro\devkitARM\arm-eabi\lib\libstdc++.a(eh_personality.o)
                              ./basicObject.o (__gxx_personality_v0)
C:\devkitPro\devkitARM\arm-eabi\lib\libstdc++.a(eh_terminate.o)
                              C:\devkitPro\devkitARM\arm-eabi\lib\libstdc++.a(eh_arm.o) (std::terminate())
C:\devkitPro\devkitARM\arm-eabi\lib\libstdc++.a(eh_term_handler.o)
                              C:\devkitPro\devkitARM\arm-eabi\lib\libstdc++.a(eh_terminate.o) (__cxxabiv1::__terminate_handler)
C:\devkitPro\devkitARM\arm-eabi\lib\libstdc++.a(eh_throw.o)
                              C:\devkitPro\devkitARM\arm-eabi\lib\libstdc++.a(eh_aux_runtime.o) (__cxa_throw)
C:\devkitPro\devkitARM\arm-eabi\lib\libstdc++.a(eh_unex_handler.o)
                              C:\devkitPro\devkitARM\arm-eabi\lib\libstdc++.a(eh_terminate.o) (__cxxabiv1::__unexpected_handler)
C:\devkitPro\devkitARM\arm-eabi\lib\libstdc++.a(new_op.o)
                              ./main.o (operator new(unsigned int))
C:\devkitPro\devkitARM\arm-eabi\lib\libstdc++.a(tinfo.o)
                              ./main.o (vtable for __cxxabiv1::__class_type_info)
C:\devkitPro\devkitARM\arm-eabi\lib\libstdc++.a(tinfo2.o)
                              C:\devkitPro\devkitARM\arm-eabi\lib\libstdc++.a(eh_arm.o) (typeinfo for void)
C:\devkitPro\devkitARM\arm-eabi\lib\libstdc++.a(vterminate.o)
                              C:\devkitPro\devkitARM\arm-eabi\lib\libstdc++.a(eh_term_handler.o) (__gnu_cxx::__verbose_terminate_handler())
C:\devkitPro\devkitARM\arm-eabi\lib\libstdc++.a(cp-demangle.o)
                              C:\devkitPro\devkitARM\arm-eabi\lib\libstdc++.a(vterminate.o) (__cxa_demangle)
C:\devkitPro\devkitARM\arm-eabi\lib\libstdc++.a(eh_alloc.o)
                              C:\devkitPro\devkitARM\arm-eabi\lib\libstdc++.a(eh_throw.o) (__cxa_free_exception)
C:\devkitPro\devkitARM\arm-eabi\lib\libstdc++.a(eh_call.o)
                              C:\devkitPro\devkitARM\arm-eabi\lib\libstdc++.a(new_op.o) (__cxa_call_unexpected)
C:\devkitPro\devkitARM\arm-eabi\lib\libstdc++.a(eh_catch.o)
                              C:\devkitPro\devkitARM\arm-eabi\lib\libstdc++.a(eh_personality.o) (__cxa_end_catch)
C:\devkitPro\devkitARM\arm-eabi\lib\libstdc++.a(eh_exception.o)
                              C:\devkitPro\devkitARM\arm-eabi\lib\libstdc++.a(tinfo.o) (std::exception::what() const)
C:\devkitPro\devkitARM\arm-eabi\lib\libstdc++.a(eh_type.o)
                              C:\devkitPro\devkitARM\arm-eabi\lib\libstdc++.a(vterminate.o) (__cxa_current_exception_type)
C:\devkitPro\devkitARM\arm-eabi\lib\libstdc++.a(new_handler.o)
                              C:\devkitPro\devkitARM\arm-eabi\lib\libstdc++.a(new_op.o) (__new_handler)
C:\devkitPro\devkitARM\arm-eabi\lib\libm.a(lib_a-s_round.o)
                              ./cDraw.o (round)
C:\devkitPro\devkitARM\arm-eabi\lib\libm.a(lib_a-w_sqrt.o)
                              ./cDraw.o (sqrt)
C:\devkitPro\devkitARM\arm-eabi\lib\libm.a(lib_a-e_sqrt.o)
                              C:\devkitPro\devkitARM\arm-eabi\lib\libm.a(lib_a-w_sqrt.o) (__ieee754_sqrt)
C:\devkitPro\devkitARM\arm-eabi\lib\libm.a(lib_a-s_isnand.o)
                              C:\devkitPro\devkitARM\arm-eabi\lib\libm.a(lib_a-w_sqrt.o) (__isnand)
C:\devkitPro\devkitARM\arm-eabi\lib\libm.a(lib_a-s_lib_ver.o)
                              C:\devkitPro\devkitARM\arm-eabi\lib\libm.a(lib_a-w_sqrt.o) (__fdlib_version)
C:\devkitPro\devkitARM\arm-eabi\lib\libm.a(lib_a-s_matherr.o)
                              C:\devkitPro\devkitARM\arm-eabi\lib\libm.a(lib_a-w_sqrt.o) (matherr)
C:\devkitPro\devkitARM\lib\gcc\arm-eabi\4.1.2\libgcc.a(_divsi3.o)
                              ./cMath.o (__aeabi_idivmod)
C:\devkitPro\devkitARM\lib\gcc\arm-eabi\4.1.2\libgcc.a(_dvmd_tls.o)
                              C:\devkitPro\devkitARM\lib\gcc\arm-eabi\4.1.2\libgcc.a(_divsi3.o) (__div0)
C:\devkitPro\devkitARM\lib\gcc\arm-eabi\4.1.2\libgcc.a(_addsubdf3.o)
                              ./cDraw.o (__aeabi_dsub)
C:\devkitPro\devkitARM\lib\gcc\arm-eabi\4.1.2\libgcc.a(_muldivdf3.o)
                              ./cDraw.o (__aeabi_dmul)
C:\devkitPro\devkitARM\lib\gcc\arm-eabi\4.1.2\libgcc.a(_cmpdf2.o)
                              C:\devkitPro\devkitARM\arm-eabi\lib\libm.a(lib_a-w_sqrt.o) (__aeabi_dcmplt)
C:\devkitPro\devkitARM\lib\gcc\arm-eabi\4.1.2\libgcc.a(_fixdfsi.o)
                              ./cDraw.o (__aeabi_d2iz)
C:\devkitPro\devkitARM\lib\gcc\arm-eabi\4.1.2\libgcc.a(unwind-arm.o)
                              ./basicObject.o (__aeabi_unwind_cpp_pr0)
C:\devkitPro\devkitARM\lib\gcc\arm-eabi\4.1.2\libgcc.a(libunwind.o)
                              C:\devkitPro\devkitARM\lib\gcc\arm-eabi\4.1.2\libgcc.a(unwind-arm.o) (restore_core_regs)
C:\devkitPro\devkitARM\lib\gcc\arm-eabi\4.1.2\libgcc.a(pr-support.o)
                              C:\devkitPro\devkitARM\arm-eabi\lib\libstdc++.a(eh_personality.o) (_Unwind_GetLanguageSpecificData)
C:\devkitPro\devkitARM\arm-eabi\lib\libc.a(lib_a-abort.o)
                              C:\devkitPro\devkitARM\arm-eabi\lib\libstdc++.a(eh_personality.o) (abort)
C:\devkitPro\devkitARM\arm-eabi\lib\libc.a(lib_a-assert.o)
                              ./cScreenManager.o (__assert)
C:\devkitPro\devkitARM\arm-eabi\lib\libc.a(lib_a-errno.o)
                              C:\devkitPro\devkitARM\arm-eabi\lib\libm.a(lib_a-w_sqrt.o) (__errno)
C:\devkitPro\devkitARM\arm-eabi\lib\libc.a(lib_a-fiprintf.o)
                              C:\devkitPro\devkitARM\arm-eabi\lib\libc.a(lib_a-assert.o) (fiprintf)
C:\devkitPro\devkitARM\arm-eabi\lib\libc.a(lib_a-fputc.o)
                              C:\devkitPro\devkitARM\arm-eabi\lib\libstdc++.a(vterminate.o) (fputc)
C:\devkitPro\devkitARM\arm-eabi\lib\libc.a(lib_a-fputs.o)
                              C:\devkitPro\devkitARM\arm-eabi\lib\libstdc++.a(vterminate.o) (fputs)
C:\devkitPro\devkitARM\arm-eabi\lib\libc.a(lib_a-fvwrite.o)
                              C:\devkitPro\devkitARM\arm-eabi\lib\libc.a(lib_a-fputs.o) (__sfvwrite_r)
C:\devkitPro\devkitARM\arm-eabi\lib\libc.a(lib_a-fwrite.o)
                              C:\devkitPro\devkitARM\arm-eabi\lib\libstdc++.a(vterminate.o) (fwrite)
C:\devkitPro\devkitARM\arm-eabi\lib\libc.a(lib_a-impure.o)
                              C:\devkitPro\devkitARM\arm-eabi\lib\libstdc++.a(vterminate.o) (_impure_ptr)
C:\devkitPro\devkitARM\arm-eabi\lib\libc.a(lib_a-init.o)
                              c:/devkitpro/devkitarm/bin/../lib/gcc/arm-eabi/4.1.2/../../../../arm-eabi/lib/ds_arm9_crt0.o (__libc_init_array)
C:\devkitPro\devkitARM\arm-eabi\lib\libc.a(lib_a-malloc.o)
                              C:\devkitPro\devkitARM\arm-eabi\lib\libstdc++.a(del_op.o) (free)
C:\devkitPro\devkitARM\arm-eabi\lib\libc.a(lib_a-mallocr.o)
                              C:\devkitPro\devkitARM\arm-eabi\lib\libc.a(lib_a-malloc.o) (_malloc_r)
C:\devkitPro\devkitARM\arm-eabi\lib\libc.a(lib_a-memchr.o)
                              C:\devkitPro\devkitARM\arm-eabi\lib\libc.a(lib_a-fvwrite.o) (memchr)
C:\devkitPro\devkitARM\arm-eabi\lib\libc.a(lib_a-memcmp.o)
                              C:\devkitPro\devkitARM\arm-eabi\lib\libstdc++.a(cp-demangle.o) (memcmp)
C:\devkitPro\devkitARM\arm-eabi\lib\libc.a(lib_a-memcpy.o)
                              ./main.o (memcpy)
C:\devkitPro\devkitARM\arm-eabi\lib\libc.a(lib_a-memmove.o)
                              C:\devkitPro\devkitARM\arm-eabi\lib\libc.a(lib_a-fvwrite.o) (memmove)
C:\devkitPro\devkitARM\arm-eabi\lib\libc.a(lib_a-memset.o)
                              C:\devkitPro\devkitARM\arm-eabi\lib\libstdc++.a(eh_alloc.o) (memset)
C:\devkitPro\devkitARM\arm-eabi\lib\libc.a(lib_a-mlock.o)
                              C:\devkitPro\devkitARM\arm-eabi\lib\libc.a(lib_a-mallocr.o) (__malloc_lock)
C:\devkitPro\devkitARM\arm-eabi\lib\libc.a(lib_a-putc.o)
                              C:\devkitPro\devkitARM\arm-eabi\lib\libc.a(lib_a-fputc.o) (_putc_r)
C:\devkitPro\devkitARM\arm-eabi\lib\libc.a(lib_a-realloc.o)
                              C:\devkitPro\devkitARM\arm-eabi\lib\libstdc++.a(cp-demangle.o) (realloc)
C:\devkitPro\devkitARM\arm-eabi\lib\libc.a(lib_a-reallocr.o)
                              C:\devkitPro\devkitARM\arm-eabi\lib\libc.a(lib_a-fvwrite.o) (_realloc_r)
C:\devkitPro\devkitARM\arm-eabi\lib\libc.a(lib_a-signal.o)
                              C:\devkitPro\devkitARM\arm-eabi\lib\libc.a(lib_a-abort.o) (raise)
C:\devkitPro\devkitARM\arm-eabi\lib\libc.a(lib_a-strcat.o)
                              C:\devkitPro\devkitARM\arm-eabi\lib\libstdc++.a(cp-demangle.o) (strcat)
C:\devkitPro\devkitARM\arm-eabi\lib\libc.a(lib_a-strcmp.o)
                              C:\devkitPro\devkitARM\arm-eabi\lib\libstdc++.a(tinfo.o) (strcmp)
C:\devkitPro\devkitARM\arm-eabi\lib\libc.a(lib_a-strcpy.o)
                              C:\devkitPro\devkitARM\arm-eabi\lib\libstdc++.a(cp-demangle.o) (strcpy)
C:\devkitPro\devkitARM\arm-eabi\lib\libc.a(lib_a-strlen.o)
                              C:\devkitPro\devkitARM\arm-eabi\lib\libstdc++.a(cp-demangle.o) (strlen)
C:\devkitPro\devkitARM\arm-eabi\lib\libc.a(lib_a-strncmp.o)
                              C:\devkitPro\devkitARM\arm-eabi\lib\libstdc++.a(cp-demangle.o) (strncmp)
C:\devkitPro\devkitARM\arm-eabi\lib\libc.a(lib_a-vfiprintf.o)
                              C:\devkitPro\devkitARM\arm-eabi\lib\libc.a(lib_a-fiprintf.o) (vfiprintf)
C:\devkitPro\devkitARM\arm-eabi\lib\libc.a(lib_a-wbuf.o)
                              C:\devkitPro\devkitARM\arm-eabi\lib\libc.a(lib_a-putc.o) (__swbuf_r)
C:\devkitPro\devkitARM\arm-eabi\lib\libc.a(lib_a-wcrtomb.o)
                              C:\devkitPro\devkitARM\arm-eabi\lib\libc.a(lib_a-vfiprintf.o) (_wcrtomb_r)
C:\devkitPro\devkitARM\arm-eabi\lib\libc.a(lib_a-wcsrtombs.o)
                              C:\devkitPro\devkitARM\arm-eabi\lib\libc.a(lib_a-vfiprintf.o) (_wcsrtombs_r)
C:\devkitPro\devkitARM\arm-eabi\lib\libc.a(lib_a-wctomb_r.o)
                              C:\devkitPro\devkitARM\arm-eabi\lib\libc.a(lib_a-wcrtomb.o) (_wctomb_r)
C:\devkitPro\devkitARM\arm-eabi\lib\libc.a(lib_a-wsetup.o)
                              C:\devkitPro\devkitARM\arm-eabi\lib\libc.a(lib_a-fvwrite.o) (__swsetup)
C:\devkitPro\devkitARM\arm-eabi\lib\libc.a(lib_a-fflush.o)
                              C:\devkitPro\devkitARM\arm-eabi\lib\libc.a(lib_a-fvwrite.o) (fflush)
C:\devkitPro\devkitARM\arm-eabi\lib\libc.a(lib_a-findfp.o)
                              C:\devkitPro\devkitARM\arm-eabi\lib\libc.a(lib_a-fputc.o) (__sinit)
C:\devkitPro\devkitARM\arm-eabi\lib\libc.a(lib_a-freer.o)
                              C:\devkitPro\devkitARM\arm-eabi\lib\libc.a(lib_a-fvwrite.o) (_free_r)
C:\devkitPro\devkitARM\arm-eabi\lib\libc.a(lib_a-fwalk.o)
                              C:\devkitPro\devkitARM\arm-eabi\lib\libc.a(lib_a-fflush.o) (_fwalk)
C:\devkitPro\devkitARM\arm-eabi\lib\libc.a(lib_a-locale.o)
                              C:\devkitPro\devkitARM\arm-eabi\lib\libc.a(lib_a-wctomb_r.o) (__lc_ctype)
C:\devkitPro\devkitARM\arm-eabi\lib\libc.a(lib_a-makebuf.o)
                              C:\devkitPro\devkitARM\arm-eabi\lib\libc.a(lib_a-wsetup.o) (__smakebuf)
C:\devkitPro\devkitARM\arm-eabi\lib\libc.a(lib_a-stdio.o)
                              C:\devkitPro\devkitARM\arm-eabi\lib\libc.a(lib_a-findfp.o) (__sclose)
C:\devkitPro\devkitARM\arm-eabi\lib\libc.a(lib_a-fclose.o)
                              C:\devkitPro\devkitARM\arm-eabi\lib\libc.a(lib_a-findfp.o) (fclose)
C:\devkitPro\devkitARM\lib\gcc\arm-eabi\4.1.2\libgcc.a(_udivsi3.o)
                              C:\devkitPro\devkitARM\arm-eabi\lib\libc.a(lib_a-fwrite.o) (__aeabi_uidiv)
C:\devkitPro\devkitARM\arm-eabi\lib\libsysbase.a(close.o)
                              C:\devkitPro\devkitARM\arm-eabi\lib\libc.a(lib_a-stdio.o) (_close_r)
C:\devkitPro\devkitARM\arm-eabi\lib\libsysbase.a(fstat.o)
                              C:\devkitPro\devkitARM\arm-eabi\lib\libc.a(lib_a-makebuf.o) (_fstat_r)
C:\devkitPro\devkitARM\arm-eabi\lib\libsysbase.a(getpid.o)
                              C:\devkitPro\devkitARM\arm-eabi\lib\libc.a(lib_a-signal.o) (_getpid_r)
C:\devkitPro\devkitARM\arm-eabi\lib\libsysbase.a(isatty.o)
                              C:\devkitPro\devkitARM\arm-eabi\lib\libc.a(lib_a-makebuf.o) (isatty)
C:\devkitPro\devkitARM\arm-eabi\lib\libsysbase.a(kill.o)
                              C:\devkitPro\devkitARM\arm-eabi\lib\libc.a(lib_a-signal.o) (_kill_r)
C:\devkitPro\devkitARM\arm-eabi\lib\libsysbase.a(lseek.o)
                              C:\devkitPro\devkitARM\arm-eabi\lib\libc.a(lib_a-stdio.o) (_lseek_r)
C:\devkitPro\devkitARM\arm-eabi\lib\libsysbase.a(read.o)
                              C:\devkitPro\devkitARM\arm-eabi\lib\libc.a(lib_a-stdio.o) (_read_r)
C:\devkitPro\devkitARM\arm-eabi\lib\libsysbase.a(sbrk.o)
                              C:\devkitPro\devkitARM\arm-eabi\lib\libc.a(lib_a-mallocr.o) (_sbrk_r)
C:\devkitPro\devkitARM\arm-eabi\lib\libsysbase.a(times.o)
                              C:\devkitPro\libnds\lib\libnds9.a(initSystem.o) (punixTime)
C:\devkitPro\devkitARM\arm-eabi\lib\libsysbase.a(write.o)
                              C:\devkitPro\devkitARM\arm-eabi\lib\libc.a(lib_a-stdio.o) (_write_r)
C:\devkitPro\devkitARM\arm-eabi\lib\libsysbase.a(_exit.o)
                              C:\devkitPro\devkitARM\arm-eabi\lib\libc.a(lib_a-abort.o) (_exit)
C:\devkitPro\devkitARM\arm-eabi\lib\libsysbase.a(malloc_vars.o)
                              c:/devkitpro/devkitarm/bin/../lib/gcc/arm-eabi/4.1.2/../../../../arm-eabi/lib/ds_arm9_crt0.o (fake_heap_end)
C:\devkitPro\devkitARM\arm-eabi\lib\libsysbase.a(build_argv.o)
                              c:/devkitpro/devkitarm/bin/../lib/gcc/arm-eabi/4.1.2/../../../../arm-eabi/lib/ds_arm9_crt0.o (build_argv)
C:\devkitPro\devkitARM\arm-eabi\lib\libsysbase.a(iosupport.o)
                              C:\devkitPro\devkitARM\arm-eabi\lib\libsysbase.a(close.o) (devoptab_list)

Allocating common symbols
Common symbol       size              file

punixTime           0x4               C:\devkitPro\devkitARM\arm-eabi\lib\libsysbase.a(times.o)

Discarded input sections

 _ZN11basicObjectD0Ev
                0x00000000        0x0 ./main.o
 _ZN11basicObjectD1Ev
                0x00000000        0x0 ./main.o
 _ZN10MenuButtonD1Ev
                0x00000000        0x0 ./main.o
 _ZN10MenuButtonD0Ev
                0x00000000        0x0 ./main.o
 _ZTV10MenuButton
                0x00000000        0x0 ./main.o
 _ZTI10MenuButton
                0x00000000        0x0 ./main.o
 _ZTS10MenuButton
                0x00000000        0x0 ./main.o
 _ZTI11basicObject
                0x00000000        0x0 ./main.o
 _ZTS11basicObject
                0x00000000        0x0 ./main.o
 _ZTV11basicObject
                0x00000000        0x0 ./main.o
 _ZNK10__cxxabiv117__pbase_type_info15__pointer_catchEPKS0_PPvj
                0x00000000        0x0 C:\devkitPro\devkitARM\arm-eabi\lib\libstdc++.a(tinfo2.o)
 _ZTIPKe        0x00000000        0x0 C:\devkitPro\devkitARM\arm-eabi\lib\libstdc++.a(tinfo2.o)
 _ZTIPe         0x00000000        0x0 C:\devkitPro\devkitARM\arm-eabi\lib\libstdc++.a(tinfo2.o)
 _ZTIe          0x00000000        0x0 C:\devkitPro\devkitARM\arm-eabi\lib\libstdc++.a(tinfo2.o)
 _ZTIPKd        0x00000000        0x0 C:\devkitPro\devkitARM\arm-eabi\lib\libstdc++.a(tinfo2.o)
 _ZTIPd         0x00000000        0x0 C:\devkitPro\devkitARM\arm-eabi\lib\libstdc++.a(tinfo2.o)
 _ZTId          0x00000000        0x0 C:\devkitPro\devkitARM\arm-eabi\lib\libstdc++.a(tinfo2.o)
 _ZTIPKf        0x00000000        0x0 C:\devkitPro\devkitARM\arm-eabi\lib\libstdc++.a(tinfo2.o)
 _ZTIPf         0x00000000        0x0 C:\devkitPro\devkitARM\arm-eabi\lib\libstdc++.a(tinfo2.o)
 _ZTIf          0x00000000        0x0 C:\devkitPro\devkitARM\arm-eabi\lib\libstdc++.a(tinfo2.o)
 _ZTIPKy        0x00000000        0x0 C:\devkitPro\devkitARM\arm-eabi\lib\libstdc++.a(tinfo2.o)
 _ZTIPy         0x00000000        0x0 C:\devkitPro\devkitARM\arm-eabi\lib\libstdc++.a(tinfo2.o)
 _ZTIy          0x00000000        0x0 C:\devkitPro\devkitARM\arm-eabi\lib\libstdc++.a(tinfo2.o)
 _ZTIPKx        0x00000000        0x0 C:\devkitPro\devkitARM\arm-eabi\lib\libstdc++.a(tinfo2.o)
 _ZTIPx         0x00000000        0x0 C:\devkitPro\devkitARM\arm-eabi\lib\libstdc++.a(tinfo2.o)
 _ZTIx          0x00000000        0x0 C:\devkitPro\devkitARM\arm-eabi\lib\libstdc++.a(tinfo2.o)
 _ZTIPKm        0x00000000        0x0 C:\devkitPro\devkitARM\arm-eabi\lib\libstdc++.a(tinfo2.o)
 _ZTIPm         0x00000000        0x0 C:\devkitPro\devkitARM\arm-eabi\lib\libstdc++.a(tinfo2.o)
 _ZTIm          0x00000000        0x0 C:\devkitPro\devkitARM\arm-eabi\lib\libstdc++.a(tinfo2.o)
 _ZTIPKl        0x00000000        0x0 C:\devkitPro\devkitARM\arm-eabi\lib\libstdc++.a(tinfo2.o)
 _ZTIPl         0x00000000        0x0 C:\devkitPro\devkitARM\arm-eabi\lib\libstdc++.a(tinfo2.o)
 _ZTIl          0x00000000        0x0 C:\devkitPro\devkitARM\arm-eabi\lib\libstdc++.a(tinfo2.o)
 _ZTIPKj        0x00000000        0x0 C:\devkitPro\devkitARM\arm-eabi\lib\libstdc++.a(tinfo2.o)
 _ZTIPj         0x00000000        0x0 C:\devkitPro\devkitARM\arm-eabi\lib\libstdc++.a(tinfo2.o)
 _ZTIj          0x00000000        0x0 C:\devkitPro\devkitARM\arm-eabi\lib\libstdc++.a(tinfo2.o)
 _ZTIPKi        0x00000000        0x0 C:\devkitPro\devkitARM\arm-eabi\lib\libstdc++.a(tinfo2.o)
 _ZTIPi         0x00000000        0x0 C:\devkitPro\devkitARM\arm-eabi\lib\libstdc++.a(tinfo2.o)
 _ZTIi          0x00000000        0x0 C:\devkitPro\devkitARM\arm-eabi\lib\libstdc++.a(tinfo2.o)
 _ZTIPKt        0x00000000        0x0 C:\devkitPro\devkitARM\arm-eabi\lib\libstdc++.a(tinfo2.o)
 _ZTIPt         0x00000000        0x0 C:\devkitPro\devkitARM\arm-eabi\lib\libstdc++.a(tinfo2.o)
 _ZTIt          0x00000000        0x0 C:\devkitPro\devkitARM\arm-eabi\lib\libstdc++.a(tinfo2.o)
 _ZTIPKs        0x00000000        0x0 C:\devkitPro\devkitARM\arm-eabi\lib\libstdc++.a(tinfo2.o)
 _ZTIPs         0x00000000        0x0 C:\devkitPro\devkitARM\arm-eabi\lib\libstdc++.a(tinfo2.o)
 _ZTIs          0x00000000        0x0 C:\devkitPro\devkitARM\arm-eabi\lib\libstdc++.a(tinfo2.o)
 _ZTIPKh        0x00000000        0x0 C:\devkitPro\devkitARM\arm-eabi\lib\libstdc++.a(tinfo2.o)
 _ZTIPh         0x00000000        0x0 C:\devkitPro\devkitARM\arm-eabi\lib\libstdc++.a(tinfo2.o)
 _ZTIh          0x00000000        0x0 C:\devkitPro\devkitARM\arm-eabi\lib\libstdc++.a(tinfo2.o)
 _ZTIPKa        0x00000000        0x0 C:\devkitPro\devkitARM\arm-eabi\lib\libstdc++.a(tinfo2.o)
 _ZTIPa         0x00000000        0x0 C:\devkitPro\devkitARM\arm-eabi\lib\libstdc++.a(tinfo2.o)
 _ZTIa          0x00000000        0x0 C:\devkitPro\devkitARM\arm-eabi\lib\libstdc++.a(tinfo2.o)
 _ZTIPKc        0x00000000        0x0 C:\devkitPro\devkitARM\arm-eabi\lib\libstdc++.a(tinfo2.o)
 _ZTIPc         0x00000000        0x0 C:\devkitPro\devkitARM\arm-eabi\lib\libstdc++.a(tinfo2.o)
 _ZTIc          0x00000000        0x0 C:\devkitPro\devkitARM\arm-eabi\lib\libstdc++.a(tinfo2.o)
 _ZTIPKw        0x00000000        0x0 C:\devkitPro\devkitARM\arm-eabi\lib\libstdc++.a(tinfo2.o)
 _ZTIPw         0x00000000        0x0 C:\devkitPro\devkitARM\arm-eabi\lib\libstdc++.a(tinfo2.o)
 _ZTIw          0x00000000        0x0 C:\devkitPro\devkitARM\arm-eabi\lib\libstdc++.a(tinfo2.o)
 _ZTIPKb        0x00000000        0x0 C:\devkitPro\devkitARM\arm-eabi\lib\libstdc++.a(tinfo2.o)
 _ZTIPb         0x00000000        0x0 C:\devkitPro\devkitARM\arm-eabi\lib\libstdc++.a(tinfo2.o)
 _ZTIb          0x00000000        0x0 C:\devkitPro\devkitARM\arm-eabi\lib\libstdc++.a(tinfo2.o)
 _ZTIPKv        0x00000000        0x0 C:\devkitPro\devkitARM\arm-eabi\lib\libstdc++.a(tinfo2.o)
 _ZTIPv         0x00000000        0x0 C:\devkitPro\devkitARM\arm-eabi\lib\libstdc++.a(tinfo2.o)
 _ZTIv          0x00000000        0x0 C:\devkitPro\devkitARM\arm-eabi\lib\libstdc++.a(tinfo2.o)
 _ZTSPKe        0x00000000        0x0 C:\devkitPro\devkitARM\arm-eabi\lib\libstdc++.a(tinfo2.o)
 _ZTSPe         0x00000000        0x0 C:\devkitPro\devkitARM\arm-eabi\lib\libstdc++.a(tinfo2.o)
 _ZTSe          0x00000000        0x0 C:\devkitPro\devkitARM\arm-eabi\lib\libstdc++.a(tinfo2.o)
 _ZTSPKd        0x00000000        0x0 C:\devkitPro\devkitARM\arm-eabi\lib\libstdc++.a(tinfo2.o)
 _ZTSPd         0x00000000        0x0 C:\devkitPro\devkitARM\arm-eabi\lib\libstdc++.a(tinfo2.o)
 _ZTSd          0x00000000        0x0 C:\devkitPro\devkitARM\arm-eabi\lib\libstdc++.a(tinfo2.o)
 _ZTSPKf        0x00000000        0x0 C:\devkitPro\devkitARM\arm-eabi\lib\libstdc++.a(tinfo2.o)
 _ZTSPf         0x00000000        0x0 C:\devkitPro\devkitARM\arm-eabi\lib\libstdc++.a(tinfo2.o)
 _ZTSf          0x00000000        0x0 C:\devkitPro\devkitARM\arm-eabi\lib\libstdc++.a(tinfo2.o)
 _ZTSPKy        0x00000000        0x0 C:\devkitPro\devkitARM\arm-eabi\lib\libstdc++.a(tinfo2.o)
 _ZTSPy         0x00000000        0x0 C:\devkitPro\devkitARM\arm-eabi\lib\libstdc++.a(tinfo2.o)
 _ZTSy          0x00000000        0x0 C:\devkitPro\devkitARM\arm-eabi\lib\libstdc++.a(tinfo2.o)
 _ZTSPKx        0x00000000        0x0 C:\devkitPro\devkitARM\arm-eabi\lib\libstdc++.a(tinfo2.o)
 _ZTSPx         0x00000000        0x0 C:\devkitPro\devkitARM\arm-eabi\lib\libstdc++.a(tinfo2.o)
 _ZTSx          0x00000000        0x0 C:\devkitPro\devkitARM\arm-eabi\lib\libstdc++.a(tinfo2.o)
 _ZTSPKm        0x00000000        0x0 C:\devkitPro\devkitARM\arm-eabi\lib\libstdc++.a(tinfo2.o)
 _ZTSPm         0x00000000        0x0 C:\devkitPro\devkitARM\arm-eabi\lib\libstdc++.a(tinfo2.o)
 _ZTSm          0x00000000        0x0 C:\devkitPro\devkitARM\arm-eabi\lib\libstdc++.a(tinfo2.o)
 _ZTSPKl        0x00000000        0x0 C:\devkitPro\devkitARM\arm-eabi\lib\libstdc++.a(tinfo2.o)
 _ZTSPl         0x00000000        0x0 C:\devkitPro\devkitARM\arm-eabi\lib\libstdc++.a(tinfo2.o)
 _ZTSl          0x00000000        0x0 C:\devkitPro\devkitARM\arm-eabi\lib\libstdc++.a(tinfo2.o)
 _ZTSPKj        0x00000000        0x0 C:\devkitPro\devkitARM\arm-eabi\lib\libstdc++.a(tinfo2.o)
 _ZTSPj         0x00000000        0x0 C:\devkitPro\devkitARM\arm-eabi\lib\libstdc++.a(tinfo2.o)
 _ZTSj          0x00000000        0x0 C:\devkitPro\devkitARM\arm-eabi\lib\libstdc++.a(tinfo2.o)
 _ZTSPKi        0x00000000        0x0 C:\devkitPro\devkitARM\arm-eabi\lib\libstdc++.a(tinfo2.o)
 _ZTSPi         0x00000000        0x0 C:\devkitPro\devkitARM\arm-eabi\lib\libstdc++.a(tinfo2.o)
 _ZTSi          0x00000000        0x0 C:\devkitPro\devkitARM\arm-eabi\lib\libstdc++.a(tinfo2.o)
 _ZTSPKt        0x00000000        0x0 C:\devkitPro\devkitARM\arm-eabi\lib\libstdc++.a(tinfo2.o)
 _ZTSPt         0x00000000        0x0 C:\devkitPro\devkitARM\arm-eabi\lib\libstdc++.a(tinfo2.o)
 _ZTSt          0x00000000        0x0 C:\devkitPro\devkitARM\arm-eabi\lib\libstdc++.a(tinfo2.o)
 _ZTSPKs        0x00000000        0x0 C:\devkitPro\devkitARM\arm-eabi\lib\libstdc++.a(tinfo2.o)
 _ZTSPs         0x00000000        0x0 C:\devkitPro\devkitARM\arm-eabi\lib\libstdc++.a(tinfo2.o)
 _ZTSs          0x00000000        0x0 C:\devkitPro\devkitARM\arm-eabi\lib\libstdc++.a(tinfo2.o)
 _ZTSPKh        0x00000000        0x0 C:\devkitPro\devkitARM\arm-eabi\lib\libstdc++.a(tinfo2.o)
 _ZTSPh         0x00000000        0x0 C:\devkitPro\devkitARM\arm-eabi\lib\libstdc++.a(tinfo2.o)
 _ZTSh          0x00000000        0x0 C:\devkitPro\devkitARM\arm-eabi\lib\libstdc++.a(tinfo2.o)
 _ZTSPKa        0x00000000        0x0 C:\devkitPro\devkitARM\arm-eabi\lib\libstdc++.a(tinfo2.o)
 _ZTSPa         0x00000000        0x0 C:\devkitPro\devkitARM\arm-eabi\lib\libstdc++.a(tinfo2.o)
 _ZTSa          0x00000000        0x0 C:\devkitPro\devkitARM\arm-eabi\lib\libstdc++.a(tinfo2.o)
 _ZTSPKc        0x00000000        0x0 C:\devkitPro\devkitARM\arm-eabi\lib\libstdc++.a(tinfo2.o)
 _ZTSPc         0x00000000        0x0 C:\devkitPro\devkitARM\arm-eabi\lib\libstdc++.a(tinfo2.o)
 _ZTSc          0x00000000        0x0 C:\devkitPro\devkitARM\arm-eabi\lib\libstdc++.a(tinfo2.o)
 _ZTSPKw        0x00000000        0x0 C:\devkitPro\devkitARM\arm-eabi\lib\libstdc++.a(tinfo2.o)
 _ZTSPw         0x00000000        0x0 C:\devkitPro\devkitARM\arm-eabi\lib\libstdc++.a(tinfo2.o)
 _ZTSw          0x00000000        0x0 C:\devkitPro\devkitARM\arm-eabi\lib\libstdc++.a(tinfo2.o)
 _ZTSPKb        0x00000000        0x0 C:\devkitPro\devkitARM\arm-eabi\lib\libstdc++.a(tinfo2.o)
 _ZTSPb         0x00000000        0x0 C:\devkitPro\devkitARM\arm-eabi\lib\libstdc++.a(tinfo2.o)
 _ZTSb          0x00000000        0x0 C:\devkitPro\devkitARM\arm-eabi\lib\libstdc++.a(tinfo2.o)
 _ZTSPKv        0x00000000        0x0 C:\devkitPro\devkitARM\arm-eabi\lib\libstdc++.a(tinfo2.o)
 _ZTSPv         0x00000000        0x0 C:\devkitPro\devkitARM\arm-eabi\lib\libstdc++.a(tinfo2.o)
 _ZTSv          0x00000000        0x0 C:\devkitPro\devkitARM\arm-eabi\lib\libstdc++.a(tinfo2.o)

Memory Configuration

Name             Origin             Length             Attributes
rom              0x08000000         0x02000000
ewram            0x02000000         0x003ff000
dtcm             0x0b000000         0x00004000
itcm             0x01000000         0x00008000
*default*        0x00000000         0xffffffff

Linker script and memory map

                0x01000000                __itcm_start = 0x1000000
                0x023ff000                __ewram_end = 0x23ff000
                0x023ff000                __eheap_end = 0x23ff000
                0x0b000000                __dtcm_start = 0xb000000
                0x0b004000                __dtcm_top = 0xb004000
                0x0b003ff8                __irq_flags = (__dtcm_top - 0x8)
                0x0b003ffc                __irq_vector = (__dtcm_top - 0x4)
                0x0b003f00                __sp_svc = (__dtcm_top - 0x100)
                0x0b003e00                __sp_irq = (__sp_svc - 0x100)
                0x0b003d00                __sp_usr = (__sp_irq - 0x100)

.init           0x02000000      0x2e8
                0x02000000                __text_start = .
 *(.init)
 .init          0x02000000      0x2d0 c:/devkitpro/devkitarm/bin/../lib/gcc/arm-eabi/4.1.2/../../../../arm-eabi/lib/ds_arm9_crt0.o
                0x02000000                _start
 .init          0x020002d0        0xc c:/devkitpro/devkitarm/bin/../lib/gcc/arm-eabi/4.1.2/crti.o
                0x020002d0                _init
 .init          0x020002dc        0xc c:/devkitpro/devkitarm/bin/../lib/gcc/arm-eabi/4.1.2/crtn.o
                0x020002e8                . = ALIGN (0x4)

.plt
 *(.plt)

.text           0x020002f0     0xf8a4
 *(EXCLUDE_FILE(*.itcm*) .text)
 .text          0x020002f0        0x0 c:/devkitpro/devkitarm/bin/../lib/gcc/arm-eabi/4.1.2/../../../../arm-eabi/lib/ds_arm9_crt0.o
 .text          0x020002f0        0x0 c:/devkitpro/devkitarm/bin/../lib/gcc/arm-eabi/4.1.2/crti.o
 .text          0x020002f0       0xa4 c:/devkitpro/devkitarm/bin/../lib/gcc/arm-eabi/4.1.2/crtbegin.o
 .text          0x02000394       0x5c ./basicObject.o
                0x02000394                basicObject::canBeClicked()
                0x020003d0                basicObject::setRange(short, short, short, short)
                0x02000398                basicObject::wasClicked(short, short)
                0x020003e8                basicObject::setStartPos(short, short)
 .text          0x020003f0      0x698 ./cDraw.o
                0x02000448                drawLine(unsigned short*, Point, Point, Color, short)
                0x020006cc                drawPixel(unsigned short*, Point, Color)
                0x020003f0                swap_points(Point*, Point*, int)
                0x02000708                drawCircle(unsigned short*, Point, int, Color, bool)
                0x02000960                drawRectangle(unsigned short*, Point, Point, Color, bool)
                0x02000440                drawDot(unsigned short*, Point, Color, unsigned short, bool)
 .text          0x02000a88       0x3c ./cMath.o
                0x02000a88                gcd(int, int)
 .text          0x02000ac4      0x114 ./cScreenManager.o
                0x02000ac4                cScreenManager::cScreenManager()
                0x02000adc                cScreenManager::setScreenMode(unsigned long, unsigned long, bool)
                0x02000bc0                cScreenManager::cScreenManager()
 .text          0x02000bd8      0x27c ./main.o
                0x02000bd8                initBackground()
                0x02000c30                initVideo(cScreenManager*)
                0x02000c6c                main
 .text          0x02000e54        0x0 ./menuButton.o
 .text          0x02000e54        0x0 ./graphics/menu0.o
 .text          0x02000e54        0x0 ./graphics/menu1.o
 .text          0x02000e54        0x0 ./graphics/menu2.o
 .text          0x02000e54        0x0 ./graphics/menu3.o
 .text          0x02000e54        0x0 ./graphics/minimashers.o
 .text          0x02000e54        0x0 ./graphics/splash.o
 .text          0x02000e54        0x0 ./graphics/title.o
 .text          0x02000e54      0x158 C:\devkitPro\libnds\lib\libnds9.a(initSystem.o)
                0x02000e54                initSystem
 .text          0x02000fac       0x1c C:\devkitPro\libnds\lib\libnds9.a(touch.o)
                0x02000fac                touchReadXY
 .text          0x02000fc8      0x110 C:\devkitPro\libnds\lib\libnds9.a(video.o)
                0x02001088                vramSetBankF
                0x02001018                vramRestoreMainBanks
                0x020010b0                vramSetBankH
                0x02001060                vramSetBankD
                0x02001074                vramSetBankE
                0x0200109c                vramSetBankG
                0x0200100c                vramRestorMainBanks
                0x02001038                vramSetBankB
                0x0200104c                vramSetBankC
                0x020010c4                vramSetBankI
                0x02000fc8                vramSetMainBanks
                0x02001024                vramSetBankA
 .text          0x020010d8      0x208 C:\devkitPro\libnds\lib\libnds9.a(interrupts.o)
                0x02001240                irqEnable
                0x020010dc                irqSet
                0x02001294                irqDisable
                0x02001144                irqInit
                0x020010d8                irqDummy
                0x02001210                irqInitHandler
                0x02001190                irqClear
 .text          0x020012e0       0x70 C:\devkitPro\libnds\lib\libnds9.a(biosCalls.o)
                0x020012f0                swiSleep
                0x0200132a                swiDecompressLZSSVram
                0x02001312                swiFastCopy
                0x02001316                swiSqrt
                0x020012e0                swiSoftReset
                0x0200131a                swiCRC16
                0x0200132e                swiDecompressHuffman
                0x02001346                swiSetHaltCR
                0x020012fc                swiRemainder
                0x02001322                swiUnpackBits
                0x02001326                swiDecompressLZSSWram
                0x02001342                swiDecodeDelta16
                0x020012e4                swiDelay
                0x02001302                swiDivMod
                0x02001336                swiDecompressRLEVram
                0x02001332                swiDecompressRLEWram
                0x0200133e                swiDecodeDelta8
                0x020012f8                swiDivide
                0x020012f4                swiChangeSoundBias
                0x020012ec                swiWaitForVBlank
                0x020012e8                swiIntrWait
                0x0200131e                swiIsDebugger
                0x0200133a                swiWaitForIRQ
                0x0200130e                swiCopy
 .text          0x02001350        0x0 C:\devkitPro\libnds\lib\libnds9.a(interruptDispatcher.o)
 .text          0x02001350       0x1c C:\devkitPro\devkitARM\arm-eabi\lib\libstdc++.a(del_op.o)
                0x02001350                operator delete(void*)
 .text          0x0200136c      0x2d8 C:\devkitPro\devkitARM\arm-eabi\lib\libstdc++.a(eh_arm.o)
                0x0200136c                __cxa_end_cleanup
                0x0200137c                __cxa_begin_cleanup
                0x0200158c                __gnu_end_cleanup
                0x02001438                __cxa_type_match
 .text          0x02001644       0x60 C:\devkitPro\devkitARM\arm-eabi\lib\libstdc++.a(eh_aux_runtime.o)
                0x02001674                __cxa_bad_cast
                0x02001644                __cxa_bad_typeid
 .text          0x020016a4       0x18 C:\devkitPro\devkitARM\arm-eabi\lib\libstdc++.a(eh_globals.o)
                0x020016a4                __cxa_get_globals_fast
                0x020016b0                __cxa_get_globals
 .text          0x020016bc      0x8b0 C:\devkitPro\devkitARM\arm-eabi\lib\libstdc++.a(eh_personality.o)
                0x020019e4                __gxx_personality_v0
 .text          0x02001f6c       0x9c C:\devkitPro\devkitARM\arm-eabi\lib\libstdc++.a(eh_terminate.o)
                0x02001ff0                std::unexpected()
                0x02001f84                std::set_unexpected(void (*)())
                0x02001f6c                std::set_terminate(void (*)())
                0x02001fc4                std::terminate()
                0x02001fdc                __cxxabiv1::__unexpected(void (*)())
                0x02001f9c                __cxxabiv1::__terminate(void (*)())
 .text          0x02002008        0x0 C:\devkitPro\devkitARM\arm-eabi\lib\libstdc++.a(eh_term_handler.o)
 .text          0x02002008      0x178 C:\devkitPro\devkitARM\arm-eabi\lib\libstdc++.a(eh_throw.o)
                0x02002008                __cxa_rethrow
                0x020020b4                __cxa_throw
 .text          0x02002180        0x0 C:\devkitPro\devkitARM\arm-eabi\lib\libstdc++.a(eh_unex_handler.o)
 .text          0x02002180       0xa0 C:\devkitPro\devkitARM\arm-eabi\lib\libstdc++.a(new_op.o)
                0x02002180                operator new(unsigned int)
 .text          0x02002220      0xe90 C:\devkitPro\devkitARM\arm-eabi\lib\libstdc++.a(tinfo.o)
                0x02002228                std::type_info::__is_function_p() const
                0x0200242c                __cxxabiv1::__si_class_type_info::~__si_class_type_info()
                0x02002908                __cxxabiv1::__vmi_class_type_info::__do_upcast(__cxxabiv1::__class_type_info const*, void const*, __cxxabiv1::__class_type_info::__upcast_result&) const
                0x02002754                std::bad_typeid::~bad_typeid()
                0x020027c8                std::bad_cast::~bad_cast()
                0x0200229c                __cxxabiv1::__class_type_info::__do_find_public_src(int, void const*, __cxxabiv1::__class_type_info const*, void const*) const
                0x02002320                __cxxabiv1::__class_type_info::~__class_type_info()
                0x02002394                __cxxabiv1::__vmi_class_type_info::~__vmi_class_type_info()
                0x020026d4                __cxxabiv1::__class_type_info::__do_catch(std::type_info const*, void**, unsigned int) const
                0x020027f4                std::bad_cast::~bad_cast()
                0x02002488                __cxxabiv1::__class_type_info::__do_upcast(__cxxabiv1::__class_type_info const*, void const*, __cxxabiv1::__class_type_info::__upcast_result&) const
                0x02002368                __cxxabiv1::__vmi_class_type_info::~__vmi_class_type_info()
                0x0200283c                __cxxabiv1::__vmi_class_type_info::__do_find_public_src(int, void const*, __cxxabiv1::__class_type_info const*, void const*) const
                0x020022d4                std::type_info::~type_info()
                0x020022b0                std::type_info::~type_info()
                0x02002230                std::type_info::__do_upcast(__cxxabiv1::__class_type_info const*, void**) const
                0x020025fc                __cxxabiv1::__class_type_info::__do_dyncast(int, __cxxabiv1::__class_type_info::__sub_kind, __cxxabiv1::__class_type_info const*, void const*, __cxxabiv1::__class_type_info const*, void const*, __cxxabiv1::__class_type_info::__dyncast_result&) const
                0x020023b8                __cxxabiv1::__vmi_class_type_info::~__vmi_class_type_info()
                0x02002238                __cxxabiv1::__class_type_info::__do_upcast(__cxxabiv1::__class_type_info const*, void**) const
                0x0200251c                __cxxabiv1::__si_class_type_info::__do_dyncast(int, __cxxabiv1::__class_type_info::__sub_kind, __cxxabiv1::__class_type_info const*, void const*, __cxxabiv1::__class_type_info const*, void const*, __cxxabiv1::__class_type_info::__dyncast_result&) const
                0x020022e4                std::type_info::~type_info()
                0x020024c8                __cxxabiv1::__si_class_type_info::__do_upcast(__cxxabiv1::__class_type_info const*, void const*, __cxxabiv1::__class_type_info::__upcast_result&) const
                0x02002408                __cxxabiv1::__si_class_type_info::~__si_class_type_info()
                0x02002220                std::type_info::__is_pointer_p() const
                0x02002818                std::bad_cast::~bad_cast()
                0x020023dc                __cxxabiv1::__si_class_type_info::~__si_class_type_info()
                0x02002344                __cxxabiv1::__class_type_info::~__class_type_info()
                0x02002c18                __cxxabiv1::__vmi_class_type_info::__do_dyncast(int, __cxxabiv1::__class_type_info::__sub_kind, __cxxabiv1::__class_type_info const*, void const*, __cxxabiv1::__class_type_info const*, void const*, __cxxabiv1::__class_type_info::__dyncast_result&) const
                0x02002664                __cxxabiv1::__si_class_type_info::__do_find_public_src(int, void const*, __cxxabiv1::__class_type_info const*, void const*) const
                0x02002780                std::bad_typeid::~bad_typeid()
                0x020027a4                std::bad_typeid::~bad_typeid()
                0x02002450                std::type_info::operator==(std::type_info const&) const
                0x02002af0                __dynamic_cast
                0x0200273c                std::type_info::__do_catch(std::type_info const*, void**, unsigned int) const
                0x020022f4                __cxxabiv1::__class_type_info::~__class_type_info()
 .text          0x020030b0      0x4f4 C:\devkitPro\devkitARM\arm-eabi\lib\libstdc++.a(tinfo2.o)
                0x02003278                __cxxabiv1::__pointer_type_info::~__pointer_type_info()
                0x02003448                __cxxabiv1::__fundamental_type_info::~__fundamental_type_info()
                0x02003164                __cxxabiv1::__pbase_type_info::~__pbase_type_info()
                0x02003310                __cxxabiv1::__enum_type_info::~__enum_type_info()
                0x0200324c                __cxxabiv1::__pointer_type_info::~__pointer_type_info()
                0x0200341c                __cxxabiv1::__fundamental_type_info::~__fundamental_type_info()
                0x02003190                __cxxabiv1::__pbase_type_info::~__pbase_type_info()
                0x02003334                __cxxabiv1::__function_type_info::~__function_type_info()
                0x020030b8                __cxxabiv1::__function_type_info::__is_function_p() const
                0x020032ec                __cxxabiv1::__enum_type_info::~__enum_type_info()
                0x02003490                std::type_info::before(std::type_info const&) const
                0x020031b4                __cxxabiv1::__pbase_type_info::~__pbase_type_info()
                0x02003228                __cxxabiv1::__pointer_to_member_type_info::~__pointer_to_member_type_info()
                0x020030b0                __cxxabiv1::__pointer_type_info::__is_pointer_p() const
                0x0200346c                __cxxabiv1::__fundamental_type_info::~__fundamental_type_info()
                0x020033f8                __cxxabiv1::__array_type_info::~__array_type_info()
                0x0200329c                __cxxabiv1::__pointer_type_info::~__pointer_type_info()
                0x020031d8                __cxxabiv1::__pointer_to_member_type_info::~__pointer_to_member_type_info()
                0x020033d4                __cxxabiv1::__array_type_info::~__array_type_info()
                0x02003204                __cxxabiv1::__pointer_to_member_type_info::~__pointer_to_member_type_info()
                0x020030c0                __cxxabiv1::__pbase_type_info::__do_catch(std::type_info const*, void**, unsigned int) const
                0x020033a8                __cxxabiv1::__array_type_info::~__array_type_info()
                0x020034b4                __cxxabiv1::__pointer_type_info::__pointer_catch(__cxxabiv1::__pbase_type_info const*, void**, unsigned int) const
                0x02003384                __cxxabiv1::__function_type_info::~__function_type_info()
                0x020032c0                __cxxabiv1::__enum_type_info::~__enum_type_info()
                0x02003360                __cxxabiv1::__function_type_info::~__function_type_info()
                0x02003544                __cxxabiv1::__pointer_to_member_type_info::__pointer_catch(__cxxabiv1::__pbase_type_info const*, void**, unsigned int) const
 .text          0x020035a4      0x1a8 C:\devkitPro\devkitARM\arm-eabi\lib\libstdc++.a(vterminate.o)
                0x020035a4                __gnu_cxx::__verbose_terminate_handler()
 .text          0x0200374c     0x4960 C:\devkitPro\devkitARM\arm-eabi\lib\libstdc++.a(cp-demangle.o)
                0x02007fa4                __cxa_demangle
 .text          0x020080ac      0x11c C:\devkitPro\devkitARM\arm-eabi\lib\libstdc++.a(eh_alloc.o)
                0x020080ac                __cxa_free_exception
                0x02008114                __cxa_allocate_exception
 .text          0x020081c8      0x228 C:\devkitPro\devkitARM\arm-eabi\lib\libstdc++.a(eh_call.o)
                0x020081c8                __cxa_call_unexpected
                0x02008374                __cxa_call_terminate
 .text          0x020083f0      0x1fc C:\devkitPro\devkitARM\arm-eabi\lib\libstdc++.a(eh_catch.o)
                0x020083f0                std::uncaught_exception()
                0x020084f8                __cxa_get_exception_ptr
                0x02008414                __cxa_end_catch
                0x02008500                __cxa_begin_catch
 .text          0x020085ec       0xc8 C:\devkitPro\devkitARM\arm-eabi\lib\libstdc++.a(eh_exception.o)
                0x02008630                std::exception::~exception()
                0x020085ec                std::exception::what() const
                0x02008690                std::bad_exception::~bad_exception()
                0x0200866c                std::bad_exception::~bad_exception()
                0x02008640                std::bad_exception::~bad_exception()
                0x02008620                std::exception::~exception()
                0x020085fc                std::exception::~exception()
 .text          0x020086b4       0x2c C:\devkitPro\devkitARM\arm-eabi\lib\libstdc++.a(eh_type.o)
                0x020086b4                __cxa_current_exception_type
 .text          0x020086e0       0x8c C:\devkitPro\devkitARM\arm-eabi\lib\libstdc++.a(new_handler.o)
                0x02008748                std::bad_alloc::~bad_alloc()
                0x020086f8                std::bad_alloc::~bad_alloc()
                0x020086e0                std::set_new_handler(void (*)())
                0x02008724                std::bad_alloc::~bad_alloc()
 .text          0x0200876c      0x10c C:\devkitPro\devkitARM\arm-eabi\lib\libm.a(lib_a-s_round.o)
                0x0200876c                round
 .text          0x02008878      0x124 C:\devkitPro\devkitARM\arm-eabi\lib\libm.a(lib_a-w_sqrt.o)
                0x02008878                sqrt
 .text          0x0200899c      0x274 C:\devkitPro\devkitARM\arm-eabi\lib\libm.a(lib_a-e_sqrt.o)
                0x0200899c                __ieee754_sqrt
 .text          0x02008c10       0x30 C:\devkitPro\devkitARM\arm-eabi\lib\libm.a(lib_a-s_isnand.o)
                0x02008c10                __isnand
 .text          0x02008c40        0x0 C:\devkitPro\devkitARM\arm-eabi\lib\libm.a(lib_a-s_lib_ver.o)
 .text          0x02008c40        0x8 C:\devkitPro\devkitARM\arm-eabi\lib\libm.a(lib_a-s_matherr.o)
                0x02008c40                matherr
 .text          0x02008c48      0x144 C:\devkitPro\devkitARM\lib\gcc\arm-eabi\4.1.2\libgcc.a(_divsi3.o)
                0x02008c48                __aeabi_idiv
                0x02008c48                __divsi3
                0x02008d74                __aeabi_idivmod
 .text          0x02008d8c        0x4 C:\devkitPro\devkitARM\lib\gcc\arm-eabi\4.1.2\libgcc.a(_dvmd_tls.o)
                0x02008d8c                __aeabi_ldiv0
                0x02008d8c                __div0
                0x02008d8c                __aeabi_idiv0
 .text          0x02008d90      0x41c C:\devkitPro\devkitARM\lib\gcc\arm-eabi\4.1.2\libgcc.a(_addsubdf3.o)
                0x0200914c                __floatdidf
                0x020090d0                __floatsidf
                0x020090ac                __aeabi_ui2d
                0x02008d90                __aeabi_drsub
                0x020090f8                __extendsfdf2
                0x02008d9c                __adddf3
                0x020090ac                __floatunsidf
                0x02008d9c                __aeabi_dadd
                0x02009138                __aeabi_ul2d
                0x02008d98                __aeabi_dsub
                0x02009138                __floatundidf
                0x020090d0                __aeabi_i2d
                0x0200914c                __aeabi_l2d
                0x020090f8                __aeabi_f2d
                0x02008d98                __subdf3
 .text          0x020091ac      0x49c C:\devkitPro\devkitARM\lib\gcc\arm-eabi\4.1.2\libgcc.a(_muldivdf3.o)
                0x0200943c                __aeabi_ddiv
                0x020091ac                __aeabi_dmul
                0x0200943c                __divdf3
                0x020091ac                __muldf3
 .text          0x02009648      0x140 C:\devkitPro\devkitARM\lib\gcc\arm-eabi\4.1.2\libgcc.a(_cmpdf2.o)
                0x02009740                __aeabi_dcmple
                0x02009658                __cmpdf2
                0x02009658                __eqdf2
                0x02009648                __gtdf2
                0x020096f8                __aeabi_cdcmple
                0x020096dc                __aeabi_cdrcmple
                0x02009650                __ltdf2
                0x02009728                __aeabi_dcmplt
                0x02009650                __ledf2
                0x02009770                __aeabi_dcmpgt
                0x02009758                __aeabi_dcmpge
                0x02009658                __nedf2
                0x02009710                __aeabi_dcmpeq
                0x020096f8                __aeabi_cdcmpeq
                0x02009648                __gedf2
 .text          0x02009788       0x5c C:\devkitPro\devkitARM\lib\gcc\arm-eabi\4.1.2\libgcc.a(_fixdfsi.o)
                0x02009788                __fixdfsi
                0x02009788                __aeabi_d2iz
 .text          0x020097e4      0xc6c C:\devkitPro\devkitARM\lib\gcc\arm-eabi\4.1.2\libgcc.a(unwind-arm.o)
                0x0200a228                __gnu_Unwind_RaiseException
                0x02009e68                __aeabi_unwind_cpp_pr0
                0x020099a8                _Unwind_GetCFA
                0x02009878                _Unwind_VRS_Set
                0x0200a30c                _Unwind_VRS_Pop
                0x02009e30                __aeabi_unwind_cpp_pr2
                0x020099b4                _Unwind_DeleteException
                0x020099b0                _Unwind_Complete
                0x0200a194                __gnu_Unwind_Resume
                0x0200a104                __gnu_Unwind_ForcedUnwind
                0x0200a2d4                __gnu_Unwind_Resume_or_Rethrow
                0x020099e4                _Unwind_GetTextRelBase
                0x020097f8                _Unwind_VRS_Get
                0x02009e4c                __aeabi_unwind_cpp_pr1
                0x020099f0                _Unwind_GetDataRelBase
 .text          0x0200a450       0xbc C:\devkitPro\devkitARM\lib\gcc\arm-eabi\4.1.2\libgcc.a(libunwind.o)
                0x0200a4e8                ___Unwind_ForcedUnwind
                0x0200a474                __gnu_Unwind_Save_VFP
                0x0200a4c4                _Unwind_Resume_or_Rethrow
                0x0200a4c4                ___Unwind_Resume_or_Rethrow
                0x0200a450                __restore_core_regs
                0x0200a47c                ___Unwind_RaiseException
                0x0200a4a0                ___Unwind_Resume
                0x0200a46c                __gnu_Unwind_Restore_VFP
                0x0200a4a0                _Unwind_Resume
                0x0200a47c                _Unwind_RaiseException
                0x0200a450                restore_core_regs
                0x0200a4e8                _Unwind_ForcedUnwind
 .text          0x0200a50c      0x52c C:\devkitPro\devkitARM\lib\gcc\arm-eabi\4.1.2\libgcc.a(pr-support.o)
                0x0200a5cc                _Unwind_GetRegionStart
                0x0200a5e8                __gnu_unwind_execute
                0x0200a5a0                _Unwind_GetLanguageSpecificData
                0x0200a9f0                __gnu_unwind_frame
 .text          0x0200aa38       0x10 C:\devkitPro\devkitARM\arm-eabi\lib\libc.a(lib_a-abort.o)
                0x0200aa38                abort
 .text          0x0200aa48       0x34 C:\devkitPro\devkitARM\arm-eabi\lib\libc.a(lib_a-assert.o)
                0x0200aa48                __assert
 .text          0x0200aa7c       0x10 C:\devkitPro\devkitARM\arm-eabi\lib\libc.a(lib_a-errno.o)
                0x0200aa7c                __errno
 .text          0x0200aa8c       0x30 C:\devkitPro\devkitARM\arm-eabi\lib\libc.a(lib_a-fiprintf.o)
                0x0200aa8c                fiprintf
 .text          0x0200aabc       0x90 C:\devkitPro\devkitARM\arm-eabi\lib\libc.a(lib_a-fputc.o)
                0x0200ab0c                _fputc_r
                0x0200aabc                fputc
 .text          0x0200ab4c       0x8c C:\devkitPro\devkitARM\arm-eabi\lib\libc.a(lib_a-fputs.o)
                0x0200ab4c                _fputs_r
                0x0200abbc                fputs
 .text          0x0200abd8      0x44c C:\devkitPro\devkitARM\arm-eabi\lib\libc.a(lib_a-fvwrite.o)
                0x0200abd8                __sfvwrite_r
 .text          0x0200b024       0xc8 C:\devkitPro\devkitARM\arm-eabi\lib\libc.a(lib_a-fwrite.o)
                0x0200b024                _fwrite_r
                0x0200b0a8                fwrite
 .text          0x0200b0ec        0x0 C:\devkitPro\devkitARM\arm-eabi\lib\libc.a(lib_a-impure.o)
 .text          0x0200b0ec       0xd4 C:\devkitPro\devkitARM\arm-eabi\lib\libc.a(lib_a-init.o)
                0x0200b138                __libc_init_array
                0x0200b0ec                __libc_fini_array
 .text          0x0200b1c0       0x50 C:\devkitPro\devkitARM\arm-eabi\lib\libc.a(lib_a-malloc.o)
                0x0200b1e8                malloc
                0x0200b1c0                free
 .text          0x0200b210      0x77c C:\devkitPro\devkitARM\arm-eabi\lib\libc.a(lib_a-mallocr.o)
                0x0200b210                _malloc_r
 .text          0x0200b98c      0x108 C:\devkitPro\devkitARM\arm-eabi\lib\libc.a(lib_a-memchr.o)
                0x0200b98c                memchr
 .text          0x0200ba94       0x98 C:\devkitPro\devkitARM\arm-eabi\lib\libc.a(lib_a-memcmp.o)
                0x0200ba94                memcmp
 .text          0x0200bb2c       0x9c C:\devkitPro\devkitARM\arm-eabi\lib\libc.a(lib_a-memcpy.o)
                0x0200bb2c                memcpy
 .text          0x0200bbc8       0xfc C:\devkitPro\devkitARM\arm-eabi\lib\libc.a(lib_a-memmove.o)
                0x0200bbc8                memmove
 .text          0x0200bcc4       0x98 C:\devkitPro\devkitARM\arm-eabi\lib\libc.a(lib_a-memset.o)
                0x0200bcc4                memset
 .text          0x0200bd5c        0x8 C:\devkitPro\devkitARM\arm-eabi\lib\libc.a(lib_a-mlock.o)
                0x0200bd60                __malloc_unlock
                0x0200bd5c                __malloc_lock
 .text          0x0200bd64      0x188 C:\devkitPro\devkitARM\arm-eabi\lib\libc.a(lib_a-putc.o)
                0x0200be30                _putc_r
                0x0200bd64                putc
 .text          0x0200beec       0x30 C:\devkitPro\devkitARM\arm-eabi\lib\libc.a(lib_a-realloc.o)
                0x0200beec                realloc
 .text          0x0200bf1c      0x61c C:\devkitPro\devkitARM\arm-eabi\lib\libc.a(lib_a-reallocr.o)
                0x0200bf1c                _realloc_r
 .text          0x0200c538      0x24c C:\devkitPro\devkitARM\arm-eabi\lib\libc.a(lib_a-signal.o)
                0x0200c70c                _signal_r
                0x0200c644                _raise_r
                0x0200c5a4                __sigtramp_r
                0x0200c768                signal
                0x0200c594                _init_signal
                0x0200c538                _init_signal_r
                0x0200c630                __sigtramp
                0x0200c6f8                raise
 .text          0x0200c784       0x98 C:\devkitPro\devkitARM\arm-eabi\lib\libc.a(lib_a-strcat.o)
                0x0200c784                strcat
 .text          0x0200c81c       0xd0 C:\devkitPro\devkitARM\arm-eabi\lib\libc.a(lib_a-strcmp.o)
                0x0200c81c                strcmp
 .text          0x0200c8ec       0xa0 C:\devkitPro\devkitARM\arm-eabi\lib\libc.a(lib_a-strcpy.o)
                0x0200c8ec                strcpy
 .text          0x0200c98c       0x90 C:\devkitPro\devkitARM\arm-eabi\lib\libc.a(lib_a-strlen.o)
                0x0200c98c                strlen
 .text          0x0200ca1c      0x13c C:\devkitPro\devkitARM\arm-eabi\lib\libc.a(lib_a-strncmp.o)
                0x0200ca1c                strncmp
 .text          0x0200cb58     0x1358 C:\devkitPro\devkitARM\arm-eabi\lib\libc.a(lib_a-vfiprintf.o)
                0x0200de84                vfiprintf
                0x0200cb98                _vfiprintf_r
 .text          0x0200deb0      0x128 C:\devkitPro\devkitARM\arm-eabi\lib\libc.a(lib_a-wbuf.o)
                0x0200deb0                __swbuf_r
                0x0200dfbc                __swbuf
 .text          0x0200dfd8       0x84 C:\devkitPro\devkitARM\arm-eabi\lib\libc.a(lib_a-wcrtomb.o)
                0x0200dfd8                _wcrtomb_r
                0x0200e030                wcrtomb
 .text          0x0200e05c      0x180 C:\devkitPro\devkitARM\arm-eabi\lib\libc.a(lib_a-wcsrtombs.o)
                0x0200e05c                _wcsrtombs_r
                0x0200e198                wcsrtombs
 .text          0x0200e1dc      0x428 C:\devkitPro\devkitARM\arm-eabi\lib\libc.a(lib_a-wctomb_r.o)
                0x0200e1dc                _wctomb_r
 .text          0x0200e604      0x10c C:\devkitPro\devkitARM\arm-eabi\lib\libc.a(lib_a-wsetup.o)
                0x0200e604                __swsetup
 .text          0x0200e710      0x1b8 C:\devkitPro\devkitARM\arm-eabi\lib\libc.a(lib_a-fflush.o)
                0x0200e710                fflush
 .text          0x0200e8c8      0x2bc C:\devkitPro\devkitARM\arm-eabi\lib\libc.a(lib_a-findfp.o)
                0x0200e934                __sinit
                0x0200ea4c                __sfmoreglue
                0x0200ea3c                _cleanup
                0x0200ea1c                _cleanup_r
                0x0200e9f0                __fp_lock_all
                0x0200e924                __sfp_lock_acquire
                0x0200ea9c                __sfp
                0x0200e930                __sinit_lock_release
                0x0200e9c4                __fp_unlock_all
                0x0200e928                __sfp_lock_release
                0x0200e92c                __sinit_lock_acquire
 .text          0x0200eb84      0x3c0 C:\devkitPro\devkitARM\arm-eabi\lib\libc.a(lib_a-freer.o)
                0x0200ec8c                _free_r
                0x0200eb84                _malloc_trim_r
 .text          0x0200ef44      0x11c C:\devkitPro\devkitARM\arm-eabi\lib\libc.a(lib_a-fwalk.o)
                0x0200efd0                _fwalk
                0x0200ef44                _fwalk_reent
 .text          0x0200f060       0xb0 C:\devkitPro\devkitARM\arm-eabi\lib\libc.a(lib_a-locale.o)
                0x0200f08c                _setlocale_r
                0x0200f060                __locale_charset
                0x0200f070                _localeconv_r
                0x0200f0f4                setlocale
                0x0200f07c                localeconv
 .text          0x0200f110      0x168 C:\devkitPro\devkitARM\arm-eabi\lib\libc.a(lib_a-makebuf.o)
                0x0200f110                __smakebuf
 .text          0x0200f278      0x128 C:\devkitPro\devkitARM\arm-eabi\lib\libc.a(lib_a-stdio.o)
                0x0200f2a0                __sseek
                0x0200f358                __sread
                0x0200f278                __sclose
                0x0200f2ec                __swrite
 .text          0x0200f3a0      0x110 C:\devkitPro\devkitARM\arm-eabi\lib\libc.a(lib_a-fclose.o)
                0x0200f3a0                _fclose_r
                0x0200f49c                fclose
 .text          0x0200f4b0      0x114 C:\devkitPro\devkitARM\lib\gcc\arm-eabi\4.1.2\libgcc.a(_udivsi3.o)
                0x0200f4b0                __udivsi3
                0x0200f4b0                __aeabi_uidiv
                0x0200f5ac                __aeabi_uidivmod
 .text          0x0200f5c4       0x60 C:\devkitPro\devkitARM\arm-eabi\lib\libsysbase.a(close.o)
                0x0200f5c4                _close_r
 .text          0x0200f624       0x68 C:\devkitPro\devkitARM\arm-eabi\lib\libsysbase.a(fstat.o)
                0x0200f624                _fstat_r
 .text          0x0200f68c       0x10 C:\devkitPro\devkitARM\arm-eabi\lib\libsysbase.a(getpid.o)
                0x0200f68c                _getpid_r
 .text          0x0200f69c        0x8 C:\devkitPro\devkitARM\arm-eabi\lib\libsysbase.a(isatty.o)
                0x0200f69c                isatty
 .text          0x0200f6a4       0x10 C:\devkitPro\devkitARM\arm-eabi\lib\libsysbase.a(kill.o)
                0x0200f6a4                _kill_r
 .text          0x0200f6b4       0x48 C:\devkitPro\devkitARM\arm-eabi\lib\libsysbase.a(lseek.o)
                0x0200f6b4                _lseek_r
 .text          0x0200f6fc       0x5c C:\devkitPro\devkitARM\arm-eabi\lib\libsysbase.a(read.o)
                0x0200f6fc                _read_r
 .text          0x0200f758       0x80 C:\devkitPro\devkitARM\arm-eabi\lib\libsysbase.a(sbrk.o)
                0x0200f758                _sbrk_r
 .text          0x0200f7d8       0x70 C:\devkitPro\devkitARM\arm-eabi\lib\libsysbase.a(times.o)
                0x0200f7e0                _gettimeofday_r
                0x0200f7d8                _times_r
                0x0200f824                _times
 .text          0x0200f848       0x5c C:\devkitPro\devkitARM\arm-eabi\lib\libsysbase.a(write.o)
                0x0200f848                _write_r
 .text          0x0200f8a4        0x4 C:\devkitPro\devkitARM\arm-eabi\lib\libsysbase.a(_exit.o)
                0x0200f8a4                _exit
 .text          0x0200f8a8        0x0 C:\devkitPro\devkitARM\arm-eabi\lib\libsysbase.a(malloc_vars.o)
 .text          0x0200f8a8       0x7c C:\devkitPro\devkitARM\arm-eabi\lib\libsysbase.a(build_argv.o)
                0x0200f8a8                build_argv
 .text          0x0200f924      0x18c C:\devkitPro\devkitARM\arm-eabi\lib\libsysbase.a(iosupport.o)
                0x0200fa74                RemoveDevice
                0x0200f924                setDefaultDevice
                0x0200f93c                AddDevice
                0x0200f9d0                FindDevice
 .text          0x0200fab0        0x0 c:/devkitpro/devkitarm/bin/../lib/gcc/arm-eabi/4.1.2/crtend.o
 .text          0x0200fab0        0x0 c:/devkitpro/devkitarm/bin/../lib/gcc/arm-eabi/4.1.2/crtn.o
 *(.text.*)
 .text._ZN11basicObjectD0Ev
                0x0200fab0       0x18 ./main.o
                0x0200fab0                basicObject::~basicObject()
 .text._ZN11basicObjectD1Ev
                0x0200fac8        0xc ./main.o
                0x0200fac8                basicObject::~basicObject()
 .text._ZN10MenuButtonD1Ev
                0x0200fad4        0xc ./main.o
                0x0200fad4                MenuButton::~MenuButton()
 .text._ZN10MenuButtonD0Ev
                0x0200fae0       0x18 ./main.o
                0x0200fae0                MenuButton::~MenuButton()
 .text._ZNK10__cxxabiv117__pbase_type_info15__pointer_catchEPKS0_PPvj
                0x0200faf8       0x2c C:\devkitPro\devkitARM\arm-eabi\lib\libstdc++.a(tinfo2.o)
                0x0200faf8                __cxxabiv1::__pbase_type_info::__pointer_catch(__cxxabiv1::__pbase_type_info const*, void**, unsigned int) const
 *(.stub)
 *(.gnu.warning)
 *(.gnu.linkonce.t*)
 *(.glue_7)
 .glue_7        0x0200fb24        0x0 c:/devkitpro/devkitarm/bin/../lib/gcc/arm-eabi/4.1.2/../../../../arm-eabi/lib/ds_arm9_crt0.o
 .glue_7        0x0200fb24        0x0 c:/devkitpro/devkitarm/bin/../lib/gcc/arm-eabi/4.1.2/crti.o
 .glue_7        0x0200fb24        0x0 c:/devkitpro/devkitarm/bin/../lib/gcc/arm-eabi/4.1.2/crtbegin.o
 .glue_7        0x0200fb24        0x0 ./basicObject.o
 .glue_7        0x0200fb24        0x0 ./cDraw.o
 .glue_7        0x0200fb24        0x0 ./cMath.o
 .glue_7        0x0200fb24        0x0 ./cScreenManager.o
 .glue_7        0x0200fb24        0x0 ./main.o
 .glue_7        0x0200fb24        0x0 ./menuButton.o
 .glue_7        0x0200fb24        0x0 ./graphics/menu0.o
 .glue_7        0x0200fb24        0x0 ./graphics/menu1.o
 .glue_7        0x0200fb24        0x0 ./graphics/menu2.o
 .glue_7        0x0200fb24        0x0 ./graphics/menu3.o
 .glue_7        0x0200fb24        0x0 ./graphics/minimashers.o
 .glue_7        0x0200fb24        0x0 ./graphics/splash.o
 .glue_7        0x0200fb24        0x0 ./graphics/title.o
 .glue_7        0x0200fb24        0x0 C:\devkitPro\libnds\lib\libnds9.a(initSystem.o)
 .glue_7        0x0200fb24        0x0 C:\devkitPro\libnds\lib\libnds9.a(touch.o)
 .glue_7        0x0200fb24        0x0 C:\devkitPro\libnds\lib\libnds9.a(video.o)
 .glue_7        0x0200fb24        0x0 C:\devkitPro\libnds\lib\libnds9.a(interrupts.o)
 .glue_7        0x0200fb24        0x0 C:\devkitPro\libnds\lib\libnds9.a(biosCalls.o)
 .glue_7        0x0200fb24        0x0 C:\devkitPro\libnds\lib\libnds9.a(interruptDispatcher.o)
 .glue_7        0x0200fb24        0x0 C:\devkitPro\devkitARM\arm-eabi\lib\libstdc++.a(del_op.o)
 .glue_7        0x0200fb24        0x0 C:\devkitPro\devkitARM\arm-eabi\lib\libstdc++.a(eh_arm.o)
 .glue_7        0x0200fb24        0x0 C:\devkitPro\devkitARM\arm-eabi\lib\libstdc++.a(eh_aux_runtime.o)
 .glue_7        0x0200fb24        0x0 C:\devkitPro\devkitARM\arm-eabi\lib\libstdc++.a(eh_globals.o)
 .glue_7        0x0200fb24        0x0 C:\devkitPro\devkitARM\arm-eabi\lib\libstdc++.a(eh_personality.o)
 .glue_7        0x0200fb24        0x0 C:\devkitPro\devkitARM\arm-eabi\lib\libstdc++.a(eh_terminate.o)
 .glue_7        0x0200fb24        0x0 C:\devkitPro\devkitARM\arm-eabi\lib\libstdc++.a(eh_term_handler.o)
 .glue_7        0x0200fb24        0x0 C:\devkitPro\devkitARM\arm-eabi\lib\libstdc++.a(eh_throw.o)
 .glue_7        0x0200fb24        0x0 C:\devkitPro\devkitARM\arm-eabi\lib\libstdc++.a(eh_unex_handler.o)
 .glue_7        0x0200fb24        0x0 C:\devkitPro\devkitARM\arm-eabi\lib\libstdc++.a(new_op.o)
 .glue_7        0x0200fb24        0x0 C:\devkitPro\devkitARM\arm-eabi\lib\libstdc++.a(tinfo.o)
 .glue_7        0x0200fb24        0x0 C:\devkitPro\devkitARM\arm-eabi\lib\libstdc++.a(tinfo2.o)
 .glue_7        0x0200fb24        0x0 C:\devkitPro\devkitARM\arm-eabi\lib\libstdc++.a(vterminate.o)
 .glue_7        0x0200fb24        0x0 C:\devkitPro\devkitARM\arm-eabi\lib\libstdc++.a(cp-demangle.o)
 .glue_7        0x0200fb24        0x0 C:\devkitPro\devkitARM\arm-eabi\lib\libstdc++.a(eh_alloc.o)
 .glue_7        0x0200fb24        0x0 C:\devkitPro\devkitARM\arm-eabi\lib\libstdc++.a(eh_call.o)
 .glue_7        0x0200fb24        0x0 C:\devkitPro\devkitARM\arm-eabi\lib\libstdc++.a(eh_catch.o)
 .glue_7        0x0200fb24        0x0 C:\devkitPro\devkitARM\arm-eabi\lib\libstdc++.a(eh_exception.o)
 .glue_7        0x0200fb24        0x0 C:\devkitPro\devkitARM\arm-eabi\lib\libstdc++.a(eh_type.o)
 .glue_7        0x0200fb24        0x0 C:\devkitPro\devkitARM\arm-eabi\lib\libstdc++.a(new_handler.o)
 .glue_7        0x0200fb24        0x0 C:\devkitPro\devkitARM\arm-eabi\lib\libm.a(lib_a-s_round.o)
 .glue_7        0x0200fb24        0x0 C:\devkitPro\devkitARM\arm-eabi\lib\libm.a(lib_a-w_sqrt.o)
 .glue_7        0x0200fb24        0x0 C:\devkitPro\devkitARM\arm-eabi\lib\libm.a(lib_a-e_sqrt.o)
 .glue_7        0x0200fb24        0x0 C:\devkitPro\devkitARM\arm-eabi\lib\libm.a(lib_a-s_isnand.o)
 .glue_7        0x0200fb24        0x0 C:\devkitPro\devkitARM\arm-eabi\lib\libm.a(lib_a-s_lib_ver.o)
 .glue_7        0x0200fb24        0x0 C:\devkitPro\devkitARM\arm-eabi\lib\libm.a(lib_a-s_matherr.o)
 .glue_7        0x0200fb24        0x0 C:\devkitPro\devkitARM\lib\gcc\arm-eabi\4.1.2\libgcc.a(_divsi3.o)
 .glue_7        0x0200fb24        0x0 C:\devkitPro\devkitARM\lib\gcc\arm-eabi\4.1.2\libgcc.a(_dvmd_tls.o)
 .glue_7        0x0200fb24        0x0 C:\devkitPro\devkitARM\lib\gcc\arm-eabi\4.1.2\libgcc.a(_addsubdf3.o)
 .glue_7        0x0200fb24        0x0 C:\devkitPro\devkitARM\lib\gcc\arm-eabi\4.1.2\libgcc.a(_muldivdf3.o)
 .glue_7        0x0200fb24        0x0 C:\devkitPro\devkitARM\lib\gcc\arm-eabi\4.1.2\libgcc.a(_cmpdf2.o)
 .glue_7        0x0200fb24        0x0 C:\devkitPro\devkitARM\lib\gcc\arm-eabi\4.1.2\libgcc.a(_fixdfsi.o)
 .glue_7        0x0200fb24        0x0 C:\devkitPro\devkitARM\lib\gcc\arm-eabi\4.1.2\libgcc.a(unwind-arm.o)
 .glue_7        0x0200fb24        0x0 C:\devkitPro\devkitARM\lib\gcc\arm-eabi\4.1.2\libgcc.a(libunwind.o)
 .glue_7        0x0200fb24        0x0 C:\devkitPro\devkitARM\lib\gcc\arm-eabi\4.1.2\libgcc.a(pr-support.o)
 .glue_7        0x0200fb24        0x0 C:\devkitPro\devkitARM\arm-eabi\lib\libc.a(lib_a-abort.o)
 .glue_7        0x0200fb24        0x0 C:\devkitPro\devkitARM\arm-eabi\lib\libc.a(lib_a-assert.o)
 .glue_7        0x0200fb24        0x0 C:\devkitPro\devkitARM\arm-eabi\lib\libc.a(lib_a-errno.o)
 .glue_7        0x0200fb24        0x0 C:\devkitPro\devkitARM\arm-eabi\lib\libc.a(lib_a-fiprintf.o)
 .glue_7        0x0200fb24        0x0 C:\devkitPro\devkitARM\arm-eabi\lib\libc.a(lib_a-fputc.o)
 .glue_7        0x0200fb24        0x0 C:\devkitPro\devkitARM\arm-eabi\lib\libc.a(lib_a-fputs.o)
 .glue_7        0x0200fb24        0x0 C:\devkitPro\devkitARM\arm-eabi\lib\libc.a(lib_a-fvwrite.o)
 .glue_7        0x0200fb24        0x0 C:\devkitPro\devkitARM\arm-eabi\lib\libc.a(lib_a-fwrite.o)
 .glue_7        0x0200fb24        0x0 C:\devkitPro\devkitARM\arm-eabi\lib\libc.a(lib_a-impure.o)
 .glue_7        0x0200fb24        0x0 C:\devkitPro\devkitARM\arm-eabi\lib\libc.a(lib_a-init.o)
 .glue_7        0x0200fb24        0x0 C:\devkitPro\devkitARM\arm-eabi\lib\libc.a(lib_a-malloc.o)
 .glue_7        0x0200fb24        0x0 C:\devkitPro\devkitARM\arm-eabi\lib\libc.a(lib_a-mallocr.o)
 .glue_7        0x0200fb24        0x0 C:\devkitPro\devkitARM\arm-eabi\lib\libc.a(lib_a-memchr.o)
 .glue_7        0x0200fb24        0x0 C:\devkitPro\devkitARM\arm-eabi\lib\libc.a(lib_a-memcmp.o)
 .glue_7        0x0200fb24        0x0 C:\devkitPro\devkitARM\arm-eabi\lib\libc.a(lib_a-memcpy.o)
 .glue_7        0x0200fb24        0x0 C:\devkitPro\devkitARM\arm-eabi\lib\libc.a(lib_a-memmove.o)
 .glue_7        0x0200fb24        0x0 C:\devkitPro\devkitARM\arm-eabi\lib\libc.a(lib_a-memset.o)
 .glue_7        0x0200fb24        0x0 C:\devkitPro\devkitARM\arm-eabi\lib\libc.a(lib_a-mlock.o)
 .glue_7        0x0200fb24        0x0 C:\devkitPro\devkitARM\arm-eabi\lib\libc.a(lib_a-putc.o)
 .glue_7        0x0200fb24        0x0 C:\devkitPro\devkitARM\arm-eabi\lib\libc.a(lib_a-realloc.o)
 .glue_7        0x0200fb24        0x0 C:\devkitPro\devkitARM\arm-eabi\lib\libc.a(lib_a-reallocr.o)
 .glue_7        0x0200fb24        0x0 C:\devkitPro\devkitARM\arm-eabi\lib\libc.a(lib_a-signal.o)
 .glue_7        0x0200fb24        0x0 C:\devkitPro\devkitARM\arm-eabi\lib\libc.a(lib_a-strcat.o)
 .glue_7        0x0200fb24        0x0 C:\devkitPro\devkitARM\arm-eabi\lib\libc.a(lib_a-strcmp.o)
 .glue_7        0x0200fb24        0x0 C:\devkitPro\devkitARM\arm-eabi\lib\libc.a(lib_a-strcpy.o)
 .glue_7        0x0200fb24        0x0 C:\devkitPro\devkitARM\arm-eabi\lib\libc.a(lib_a-strlen.o)
 .glue_7        0x0200fb24        0x0 C:\devkitPro\devkitARM\arm-eabi\lib\libc.a(lib_a-strncmp.o)
 .glue_7        0x0200fb24        0x0 C:\devkitPro\devkitARM\arm-eabi\lib\libc.a(lib_a-vfiprintf.o)
 .glue_7        0x0200fb24        0x0 C:\devkitPro\devkitARM\arm-eabi\lib\libc.a(lib_a-wbuf.o)
 .glue_7        0x0200fb24        0x0 C:\devkitPro\devkitARM\arm-eabi\lib\libc.a(lib_a-wcrtomb.o)
 .glue_7        0x0200fb24        0x0 C:\devkitPro\devkitARM\arm-eabi\lib\libc.a(lib_a-wcsrtombs.o)
 .glue_7        0x0200fb24        0x0 C:\devkitPro\devkitARM\arm-eabi\lib\libc.a(lib_a-wctomb_r.o)
 .glue_7        0x0200fb24        0x0 C:\devkitPro\devkitARM\arm-eabi\lib\libc.a(lib_a-wsetup.o)
 .glue_7        0x0200fb24        0x0 C:\devkitPro\devkitARM\arm-eabi\lib\libc.a(lib_a-fflush.o)
 .glue_7        0x0200fb24        0x0 C:\devkitPro\devkitARM\arm-eabi\lib\libc.a(lib_a-findfp.o)
 .glue_7        0x0200fb24        0x0 C:\devkitPro\devkitARM\arm-eabi\lib\libc.a(lib_a-freer.o)
 .glue_7        0x0200fb24        0x0 C:\devkitPro\devkitARM\arm-eabi\lib\libc.a(lib_a-fwalk.o)
 .glue_7        0x0200fb24        0x0 C:\devkitPro\devkitARM\arm-eabi\lib\libc.a(lib_a-locale.o)
 .glue_7        0x0200fb24        0x0 C:\devkitPro\devkitARM\arm-eabi\lib\libc.a(lib_a-makebuf.o)
 .glue_7        0x0200fb24        0x0 C:\devkitPro\devkitARM\arm-eabi\lib\libc.a(lib_a-stdio.o)
 .glue_7        0x0200fb24        0x0 C:\devkitPro\devkitARM\arm-eabi\lib\libc.a(lib_a-fclose.o)
 .glue_7        0x0200fb24        0x0 C:\devkitPro\devkitARM\lib\gcc\arm-eabi\4.1.2\libgcc.a(_udivsi3.o)
 .glue_7        0x0200fb24        0x0 C:\devkitPro\devkitARM\arm-eabi\lib\libsysbase.a(close.o)
 .glue_7        0x0200fb24        0x0 C:\devkitPro\devkitARM\arm-eabi\lib\libsysbase.a(fstat.o)
 .glue_7        0x0200fb24        0x0 C:\devkitPro\devkitARM\arm-eabi\lib\libsysbase.a(getpid.o)
 .glue_7        0x0200fb24        0x0 C:\devkitPro\devkitARM\arm-eabi\lib\libsysbase.a(isatty.o)
 .glue_7        0x0200fb24        0x0 C:\devkitPro\devkitARM\arm-eabi\lib\libsysbase.a(kill.o)
 .glue_7        0x0200fb24        0x0 C:\devkitPro\devkitARM\arm-eabi\lib\libsysbase.a(lseek.o)
 .glue_7        0x0200fb24        0x0 C:\devkitPro\devkitARM\arm-eabi\lib\libsysbase.a(read.o)
 .glue_7        0x0200fb24        0x0 C:\devkitPro\devkitARM\arm-eabi\lib\libsysbase.a(sbrk.o)
 .glue_7        0x0200fb24        0x0 C:\devkitPro\devkitARM\arm-eabi\lib\libsysbase.a(times.o)
 .glue_7        0x0200fb24        0x0 C:\devkitPro\devkitARM\arm-eabi\lib\libsysbase.a(write.o)
 .glue_7        0x0200fb24        0x0 C:\devkitPro\devkitARM\arm-eabi\lib\libsysbase.a(_exit.o)
 .glue_7        0x0200fb24        0x0 C:\devkitPro\devkitARM\arm-eabi\lib\libsysbase.a(malloc_vars.o)
 .glue_7        0x0200fb24        0x0 C:\devkitPro\devkitARM\arm-eabi\lib\libsysbase.a(build_argv.o)
 .glue_7        0x0200fb24        0x0 C:\devkitPro\devkitARM\arm-eabi\lib\libsysbase.a(iosupport.o)
 .glue_7        0x0200fb24        0x0 c:/devkitpro/devkitarm/bin/../lib/gcc/arm-eabi/4.1.2/crtend.o
 .glue_7        0x0200fb24        0x0 c:/devkitpro/devkitarm/bin/../lib/gcc/arm-eabi/4.1.2/crtn.o
 *(.glue_7t)
 .glue_7t       0x0200fb24        0x0 c:/devkitpro/devkitarm/bin/../lib/gcc/arm-eabi/4.1.2/../../../../arm-eabi/lib/ds_arm9_crt0.o
 .glue_7t       0x0200fb24        0x0 c:/devkitpro/devkitarm/bin/../lib/gcc/arm-eabi/4.1.2/crti.o
 .glue_7t       0x0200fb24        0x0 c:/devkitpro/devkitarm/bin/../lib/gcc/arm-eabi/4.1.2/crtbegin.o
 .glue_7t       0x0200fb24        0x0 ./basicObject.o
 .glue_7t       0x0200fb24        0x0 ./cDraw.o
 .glue_7t       0x0200fb24        0x0 ./cMath.o
 .glue_7t       0x0200fb24        0x0 ./cScreenManager.o
 .glue_7t       0x0200fb24        0x0 ./main.o
 .glue_7t       0x0200fb24        0x0 ./menuButton.o
 .glue_7t       0x0200fb24        0x0 ./graphics/menu0.o
 .glue_7t       0x0200fb24        0x0 ./graphics/menu1.o
 .glue_7t       0x0200fb24        0x0 ./graphics/menu2.o
 .glue_7t       0x0200fb24        0x0 ./graphics/menu3.o
 .glue_7t       0x0200fb24        0x0 ./graphics/minimashers.o
 .glue_7t       0x0200fb24        0x0 ./graphics/splash.o
 .glue_7t       0x0200fb24        0x0 ./graphics/title.o
 .glue_7t       0x0200fb24        0x0 C:\devkitPro\libnds\lib\libnds9.a(initSystem.o)
 .glue_7t       0x0200fb24        0x0 C:\devkitPro\libnds\lib\libnds9.a(touch.o)
 .glue_7t       0x0200fb24        0x0 C:\devkitPro\libnds\lib\libnds9.a(video.o)
 .glue_7t       0x0200fb24        0x0 C:\devkitPro\libnds\lib\libnds9.a(interrupts.o)
 .glue_7t       0x0200fb24        0x0 C:\devkitPro\libnds\lib\libnds9.a(biosCalls.o)
 .glue_7t       0x0200fb24        0x0 C:\devkitPro\libnds\lib\libnds9.a(interruptDispatcher.o)
 .glue_7t       0x0200fb24        0x0 C:\devkitPro\devkitARM\arm-eabi\lib\libstdc++.a(del_op.o)
 .glue_7t       0x0200fb24        0x0 C:\devkitPro\devkitARM\arm-eabi\lib\libstdc++.a(eh_arm.o)
 .glue_7t       0x0200fb24        0x0 C:\devkitPro\devkitARM\arm-eabi\lib\libstdc++.a(eh_aux_runtime.o)
 .glue_7t       0x0200fb24        0x0 C:\devkitPro\devkitARM\arm-eabi\lib\libstdc++.a(eh_globals.o)
 .glue_7t       0x0200fb24        0x0 C:\devkitPro\devkitARM\arm-eabi\lib\libstdc++.a(eh_personality.o)
 .glue_7t       0x0200fb24        0x0 C:\devkitPro\devkitARM\arm-eabi\lib\libstdc++.a(eh_terminate.o)
 .glue_7t       0x0200fb24        0x0 C:\devkitPro\devkitARM\arm-eabi\lib\libstdc++.a(eh_term_handler.o)
 .glue_7t       0x0200fb24        0x0 C:\devkitPro\devkitARM\arm-eabi\lib\libstdc++.a(eh_throw.o)
 .glue_7t       0x0200fb24        0x0 C:\devkitPro\devkitARM\arm-eabi\lib\libstdc++.a(eh_unex_handler.o)
 .glue_7t       0x0200fb24        0x0 C:\devkitPro\devkitARM\arm-eabi\lib\libstdc++.a(new_op.o)
 .glue_7t       0x0200fb24        0x0 C:\devkitPro\devkitARM\arm-eabi\lib\libstdc++.a(tinfo.o)
 .glue_7t       0x0200fb24        0x0 C:\devkitPro\devkitARM\arm-eabi\lib\libstdc++.a(tinfo2.o)
 .glue_7t       0x0200fb24        0x0 C:\devkitPro\devkitARM\arm-eabi\lib\libstdc++.a(vterminate.o)
 .glue_7t       0x0200fb24        0x0 C:\devkitPro\devkitARM\arm-eabi\lib\libstdc++.a(cp-demangle.o)
 .glue_7t       0x0200fb24        0x0 C:\devkitPro\devkitARM\arm-eabi\lib\libstdc++.a(eh_alloc.o)
 .glue_7t       0x0200fb24        0x0 C:\devkitPro\devkitARM\arm-eabi\lib\libstdc++.a(eh_call.o)
 .glue_7t       0x0200fb24        0x0 C:\devkitPro\devkitARM\arm-eabi\lib\libstdc++.a(eh_catch.o)
 .glue_7t       0x0200fb24        0x0 C:\devkitPro\devkitARM\arm-eabi\lib\libstdc++.a(eh_exception.o)
 .glue_7t       0x0200fb24        0x0 C:\devkitPro\devkitARM\arm-eabi\lib\libstdc++.a(eh_type.o)
 .glue_7t       0x0200fb24        0x0 C:\devkitPro\devkitARM\arm-eabi\lib\libstdc++.a(new_handler.o)
 .glue_7t       0x0200fb24        0x0 C:\devkitPro\devkitARM\arm-eabi\lib\libm.a(lib_a-s_round.o)
 .glue_7t       0x0200fb24        0x0 C:\devkitPro\devkitARM\arm-eabi\lib\libm.a(lib_a-w_sqrt.o)
 .glue_7t       0x0200fb24        0x0 C:\devkitPro\devkitARM\arm-eabi\lib\libm.a(lib_a-e_sqrt.o)
 .glue_7t       0x0200fb24        0x0 C:\devkitPro\devkitARM\arm-eabi\lib\libm.a(lib_a-s_isnand.o)
 .glue_7t       0x0200fb24        0x0 C:\devkitPro\devkitARM\arm-eabi\lib\libm.a(lib_a-s_lib_ver.o)
 .glue_7t       0x0200fb24        0x0 C:\devkitPro\devkitARM\arm-eabi\lib\libm.a(lib_a-s_matherr.o)
 .glue_7t       0x0200fb24        0x0 C:\devkitPro\devkitARM\lib\gcc\arm-eabi\4.1.2\libgcc.a(_divsi3.o)
 .glue_7t       0x0200fb24        0x0 C:\devkitPro\devkitARM\lib\gcc\arm-eabi\4.1.2\libgcc.a(_dvmd_tls.o)
 .glue_7t       0x0200fb24        0x0 C:\devkitPro\devkitARM\lib\gcc\arm-eabi\4.1.2\libgcc.a(_addsubdf3.o)
 .glue_7t       0x0200fb24        0x0 C:\devkitPro\devkitARM\lib\gcc\arm-eabi\4.1.2\libgcc.a(_muldivdf3.o)
 .glue_7t       0x0200fb24        0x0 C:\devkitPro\devkitARM\lib\gcc\arm-eabi\4.1.2\libgcc.a(_cmpdf2.o)
 .glue_7t       0x0200fb24        0x0 C:\devkitPro\devkitARM\lib\gcc\arm-eabi\4.1.2\libgcc.a(_fixdfsi.o)
 .glue_7t       0x0200fb24        0x0 C:\devkitPro\devkitARM\lib\gcc\arm-eabi\4.1.2\libgcc.a(unwind-arm.o)
 .glue_7t       0x0200fb24        0x0 C:\devkitPro\devkitARM\lib\gcc\arm-eabi\4.1.2\libgcc.a(libunwind.o)
 .glue_7t       0x0200fb24        0x0 C:\devkitPro\devkitARM\lib\gcc\arm-eabi\4.1.2\libgcc.a(pr-support.o)
 .glue_7t       0x0200fb24        0x0 C:\devkitPro\devkitARM\arm-eabi\lib\libc.a(lib_a-abort.o)
 .glue_7t       0x0200fb24        0x0 C:\devkitPro\devkitARM\arm-eabi\lib\libc.a(lib_a-assert.o)
 .glue_7t       0x0200fb24        0x0 C:\devkitPro\devkitARM\arm-eabi\lib\libc.a(lib_a-errno.o)
 .glue_7t       0x0200fb24        0x0 C:\devkitPro\devkitARM\arm-eabi\lib\libc.a(lib_a-fiprintf.o)
 .glue_7t       0x0200fb24        0x0 C:\devkitPro\devkitARM\arm-eabi\lib\libc.a(lib_a-fputc.o)
 .glue_7t       0x0200fb24        0x0 C:\devkitPro\devkitARM\arm-eabi\lib\libc.a(lib_a-fputs.o)
 .glue_7t       0x0200fb24        0x0 C:\devkitPro\devkitARM\arm-eabi\lib\libc.a(lib_a-fvwrite.o)
 .glue_7t       0x0200fb24        0x0 C:\devkitPro\devkitARM\arm-eabi\lib\libc.a(lib_a-fwrite.o)
 .glue_7t       0x0200fb24        0x0 C:\devkitPro\devkitARM\arm-eabi\lib\libc.a(lib_a-impure.o)
 .glue_7t       0x0200fb24        0x0 C:\devkitPro\devkitARM\arm-eabi\lib\libc.a(lib_a-init.o)
 .glue_7t       0x0200fb24        0x0 C:\devkitPro\devkitARM\arm-eabi\lib\libc.a(lib_a-malloc.o)
 .glue_7t       0x0200fb24        0x0 C:\devkitPro\devkitARM\arm-eabi\lib\libc.a(lib_a-mallocr.o)
 .glue_7t       0x0200fb24        0x0 C:\devkitPro\devkitARM\arm-eabi\lib\libc.a(lib_a-memchr.o)
 .glue_7t       0x0200fb24        0x0 C:\devkitPro\devkitARM\arm-eabi\lib\libc.a(lib_a-memcmp.o)
 .glue_7t       0x0200fb24        0x0 C:\devkitPro\devkitARM\arm-eabi\lib\libc.a(lib_a-memcpy.o)
 .glue_7t       0x0200fb24        0x0 C:\devkitPro\devkitARM\arm-eabi\lib\libc.a(lib_a-memmove.o)
 .glue_7t       0x0200fb24        0x0 C:\devkitPro\devkitARM\arm-eabi\lib\libc.a(lib_a-memset.o)
 .glue_7t       0x0200fb24        0x0 C:\devkitPro\devkitARM\arm-eabi\lib\libc.a(lib_a-mlock.o)
 .glue_7t       0x0200fb24        0x0 C:\devkitPro\devkitARM\arm-eabi\lib\libc.a(lib_a-putc.o)
 .glue_7t       0x0200fb24        0x0 C:\devkitPro\devkitARM\arm-eabi\lib\libc.a(lib_a-realloc.o)
 .glue_7t       0x0200fb24        0x0 C:\devkitPro\devkitARM\arm-eabi\lib\libc.a(lib_a-reallocr.o)
 .glue_7t       0x0200fb24        0x0 C:\devkitPro\devkitARM\arm-eabi\lib\libc.a(lib_a-signal.o)
 .glue_7t       0x0200fb24        0x0 C:\devkitPro\devkitARM\arm-eabi\lib\libc.a(lib_a-strcat.o)
 .glue_7t       0x0200fb24        0x0 C:\devkitPro\devkitARM\arm-eabi\lib\libc.a(lib_a-strcmp.o)
 .glue_7t       0x0200fb24        0x0 C:\devkitPro\devkitARM\arm-eabi\lib\libc.a(lib_a-strcpy.o)
 .glue_7t       0x0200fb24        0x0 C:\devkitPro\devkitARM\arm-eabi\lib\libc.a(lib_a-strlen.o)
 .glue_7t       0x0200fb24        0x0 C:\devkitPro\devkitARM\arm-eabi\lib\libc.a(lib_a-strncmp.o)
 .glue_7t       0x0200fb24        0x0 C:\devkitPro\devkitARM\arm-eabi\lib\libc.a(lib_a-vfiprintf.o)
 .glue_7t       0x0200fb24        0x0 C:\devkitPro\devkitARM\arm-eabi\lib\libc.a(lib_a-wbuf.o)
 .glue_7t       0x0200fb24        0x0 C:\devkitPro\devkitARM\arm-eabi\lib\libc.a(lib_a-wcrtomb.o)
 .glue_7t       0x0200fb24        0x0 C:\devkitPro\devkitARM\arm-eabi\lib\libc.a(lib_a-wcsrtombs.o)
 .glue_7t       0x0200fb24        0x0 C:\devkitPro\devkitARM\arm-eabi\lib\libc.a(lib_a-wctomb_r.o)
 .glue_7t       0x0200fb24        0x0 C:\devkitPro\devkitARM\arm-eabi\lib\libc.a(lib_a-wsetup.o)
 .glue_7t       0x0200fb24        0x0 C:\devkitPro\devkitARM\arm-eabi\lib\libc.a(lib_a-fflush.o)
 .glue_7t       0x0200fb24        0x0 C:\devkitPro\devkitARM\arm-eabi\lib\libc.a(lib_a-findfp.o)
 .glue_7t       0x0200fb24        0x0 C:\devkitPro\devkitARM\arm-eabi\lib\libc.a(lib_a-freer.o)
 .glue_7t       0x0200fb24        0x0 C:\devkitPro\devkitARM\arm-eabi\lib\libc.a(lib_a-fwalk.o)
 .glue_7t       0x0200fb24        0x0 C:\devkitPro\devkitARM\arm-eabi\lib\libc.a(lib_a-locale.o)
 .glue_7t       0x0200fb24        0x0 C:\devkitPro\devkitARM\arm-eabi\lib\libc.a(lib_a-makebuf.o)
 .glue_7t       0x0200fb24        0x0 C:\devkitPro\devkitARM\arm-eabi\lib\libc.a(lib_a-stdio.o)
 .glue_7t       0x0200fb24        0x0 C:\devkitPro\devkitARM\arm-eabi\lib\libc.a(lib_a-fclose.o)
 .glue_7t       0x0200fb24        0x0 C:\devkitPro\devkitARM\lib\gcc\arm-eabi\4.1.2\libgcc.a(_udivsi3.o)
 .glue_7t       0x0200fb24        0x0 C:\devkitPro\devkitARM\arm-eabi\lib\libsysbase.a(close.o)
 .glue_7t       0x0200fb24        0x0 C:\devkitPro\devkitARM\arm-eabi\lib\libsysbase.a(fstat.o)
 .glue_7t       0x0200fb24        0x0 C:\devkitPro\devkitARM\arm-eabi\lib\libsysbase.a(getpid.o)
 .glue_7t       0x0200fb24        0x0 C:\devkitPro\devkitARM\arm-eabi\lib\libsysbase.a(isatty.o)
 .glue_7t       0x0200fb24        0x0 C:\devkitPro\devkitARM\arm-eabi\lib\libsysbase.a(kill.o)
 .glue_7t       0x0200fb24        0x0 C:\devkitPro\devkitARM\arm-eabi\lib\libsysbase.a(lseek.o)
 .glue_7t       0x0200fb24        0x0 C:\devkitPro\devkitARM\arm-eabi\lib\libsysbase.a(read.o)
 .glue_7t       0x0200fb24        0x0 C:\devkitPro\devkitARM\arm-eabi\lib\libsysbase.a(sbrk.o)
 .glue_7t       0x0200fb24        0x0 C:\devkitPro\devkitARM\arm-eabi\lib\libsysbase.a(times.o)
 .glue_7t       0x0200fb24        0x0 C:\devkitPro\devkitARM\arm-eabi\lib\libsysbase.a(write.o)
 .glue_7t       0x0200fb24        0x0 C:\devkitPro\devkitARM\arm-eabi\lib\libsysbase.a(_exit.o)
 .glue_7t       0x0200fb24        0x0 C:\devkitPro\devkitARM\arm-eabi\lib\libsysbase.a(malloc_vars.o)
 .glue_7t       0x0200fb24        0x0 C:\devkitPro\devkitARM\arm-eabi\lib\libsysbase.a(build_argv.o)
 .glue_7t       0x0200fb24        0x0 C:\devkitPro\devkitARM\arm-eabi\lib\libsysbase.a(iosupport.o)
 .glue_7t       0x0200fb24       0x70 c:/devkitpro/devkitarm/bin/../lib/gcc/arm-eabi/4.1.2/crtend.o
                0x0200fb88                ___ZdlPv_change_to_arm
                0x0200fb6c                ____assert_from_thumb
                0x0200fb74                ___Znwj_from_thumb
                0x0200fb5c                __sqrt_from_thumb
                0x0200fb64                ____aeabi_idivmod_from_thumb
                0x0200fb7c                __memcpy_from_thumb
                0x0200fb70                ____assert_change_to_arm
                0x0200fb58                ____aeabi_dadd_change_to_arm
                0x0200fb34                ____aeabi_dmul_from_thumb
                0x0200fb24                ____aeabi_i2d_from_thumb
                0x0200fb48                __round_change_to_arm
                0x0200fb2c                ____aeabi_ddiv_from_thumb
                0x0200fb38                ____aeabi_dmul_change_to_arm
                0x0200fb84                ___ZdlPv_from_thumb
                0x0200fb40                ____aeabi_dsub_change_to_arm
                0x0200fb78                ___Znwj_change_to_arm
                0x0200fb30                ____aeabi_ddiv_change_to_arm
                0x0200fb4c                ____aeabi_d2iz_from_thumb
                0x0200fb8c                ____cxa_end_cleanup_from_thumb
                0x0200fb44                __round_from_thumb
                0x0200fb28                ____aeabi_i2d_change_to_arm
                0x0200fb90                ____cxa_end_cleanup_change_to_arm
                0x0200fb54                ____aeabi_dadd_from_thumb
                0x0200fb60                __sqrt_change_to_arm
                0x0200fb3c                ____aeabi_dsub_from_thumb
                0x0200fb68                ____aeabi_idivmod_change_to_arm
                0x0200fb80                __memcpy_change_to_arm
                0x0200fb50                ____aeabi_d2iz_change_to_arm
 .glue_7t       0x0200fb94        0x0 c:/devkitpro/devkitarm/bin/../lib/gcc/arm-eabi/4.1.2/crtn.o
                0x0200fb94                . = ALIGN (0x4)

.fini           0x0200fb94       0x18
 *(.fini)
 .fini          0x0200fb94        0xc c:/devkitpro/devkitarm/bin/../lib/gcc/arm-eabi/4.1.2/crti.o
                0x0200fb94                _fini
 .fini          0x0200fba0        0xc c:/devkitpro/devkitarm/bin/../lib/gcc/arm-eabi/4.1.2/crtn.o
                0x0200fbac                __text_end = .

.rodata         0x0200fbb0    0xd1698
 *(.rodata)
 .rodata        0x0200fbb0    0x20000 ./graphics/menu0.o
                0x0200fbb0                menu0Bitmap
 .rodata        0x0202fbb0    0x20000 ./graphics/menu1.o
                0x0202fbb0                menu1Bitmap
 .rodata        0x0204fbb0    0x20000 ./graphics/menu2.o
                0x0204fbb0                menu2Bitmap
 .rodata        0x0206fbb0    0x20000 ./graphics/menu3.o
                0x0206fbb0                menu3Bitmap
 .rodata        0x0208fbb0    0x18000 ./graphics/minimashers.o
                0x0208fbb0                minimashersBitmap
 .rodata        0x020a7bb0    0x20000 ./graphics/splash.o
                0x020a7bb0                splashBitmap
 .rodata        0x020c7bb0    0x18000 ./graphics/title.o
                0x020c7bb0                titleBitmap
 .rodata        0x020dfbb0      0x1c8 C:\devkitPro\devkitARM\arm-eabi\lib\libstdc++.a(tinfo.o)
                0x020dfcc4                typeinfo name for __cxxabiv1::__si_class_type_info
                0x020dfd50                typeinfo for std::bad_cast
                0x020dfcb8                typeinfo for __cxxabiv1::__vmi_class_type_info
                0x020dfc70                vtable for std::type_info
                0x020dfbe0                vtable for __cxxabiv1::__si_class_type_info
                0x020dfcf8                typeinfo name for __cxxabiv1::__class_type_info
                0x020dfd5c                typeinfo name for std::type_info
                0x020dfd38                typeinfo for std::bad_typeid
                0x020dfc90                typeinfo name for __cxxabiv1::__vmi_class_type_info
                0x020dfd44                typeinfo name for std::bad_cast
                0x020dfc10                vtable for __cxxabiv1::__class_type_info
                0x020dfc40                vtable for std::bad_typeid
                0x020dfc58                vtable for std::bad_cast
                0x020dfd1c                typeinfo for __cxxabiv1::__class_type_info
                0x020dfbb0                vtable for __cxxabiv1::__vmi_class_type_info
                0x020dfcec                typeinfo for __cxxabiv1::__si_class_type_info
                0x020dfd6c                typeinfo for std::type_info
                0x020dfd28                typeinfo name for std::bad_typeid
 .rodata        0x020dfd78      0x260 C:\devkitPro\devkitARM\arm-eabi\lib\libstdc++.a(tinfo2.o)
                0x020dfd78                vtable for __cxxabiv1::__pointer_to_member_type_info
                0x020dfeac                typeinfo name for __cxxabiv1::__pointer_type_info
                0x020dfe70                typeinfo name for __cxxabiv1::__pointer_to_member_type_info
                0x020dff00                typeinfo for __cxxabiv1::__pbase_type_info
                0x020dfda0                vtable for __cxxabiv1::__pointer_type_info
                0x020dfdc8                vtable for __cxxabiv1::__pbase_type_info
                0x020dfe30                vtable for __cxxabiv1::__array_type_info
                0x020dffc8                typeinfo for __cxxabiv1::__fundamental_type_info
                0x020dfdf0                vtable for __cxxabiv1::__enum_type_info
                0x020dff64                typeinfo for __cxxabiv1::__function_type_info
                0x020dff94                typeinfo for __cxxabiv1::__array_type_info
                0x020dff0c                typeinfo name for __cxxabiv1::__enum_type_info
                0x020dfe10                vtable for __cxxabiv1::__function_type_info
                0x020dfe50                vtable for __cxxabiv1::__fundamental_type_info
                0x020dfea0                typeinfo for __cxxabiv1::__pointer_to_member_type_info
                0x020dfedc                typeinfo name for __cxxabiv1::__pbase_type_info
                0x020dff3c                typeinfo name for __cxxabiv1::__function_type_info
                0x020dff30                typeinfo for __cxxabiv1::__enum_type_info
                0x020dff70                typeinfo name for __cxxabiv1::__array_type_info
                0x020dffa0                typeinfo name for __cxxabiv1::__fundamental_type_info
                0x020dfed0                typeinfo for __cxxabiv1::__pointer_type_info
 .rodata        0x020dffd8      0x5ec C:\devkitPro\devkitARM\arm-eabi\lib\libstdc++.a(cp-demangle.o)
 *fill*         0x020e05c4        0x4 ff
 .rodata        0x020e05c8       0x68 C:\devkitPro\devkitARM\arm-eabi\lib\libstdc++.a(eh_exception.o)
                0x020e05c8                vtable for std::bad_exception
                0x020e0624                typeinfo for std::exception
                0x020e05f4                typeinfo name for std::bad_exception
                0x020e05e0                vtable for std::exception
                0x020e0608                typeinfo for std::bad_exception
                0x020e0614                typeinfo name for std::exception
 .rodata        0x020e0630       0x38 C:\devkitPro\devkitARM\arm-eabi\lib\libstdc++.a(new_handler.o)
                0x020e065c                typeinfo for std::bad_alloc
                0x020e0638                vtable for std::bad_alloc
                0x020e064c                typeinfo name for std::bad_alloc
                0x020e0630                std::nothrow
 .rodata        0x020e0668        0x4 C:\devkitPro\devkitARM\arm-eabi\lib\libc.a(lib_a-impure.o)
                0x020e0668                _global_impure_ptr
 .rodata        0x020e066c       0x20 C:\devkitPro\devkitARM\arm-eabi\lib\libc.a(lib_a-vfiprintf.o)
 .rodata        0x020e068c       0x34 C:\devkitPro\devkitARM\arm-eabi\lib\libc.a(lib_a-locale.o)
 .rodata        0x020e06c0       0x50 C:\devkitPro\devkitARM\arm-eabi\lib\libsysbase.a(iosupport.o)
                0x020e06c0                dotab_stdnull
 *all.rodata*(*)
 *(.roda)
 *(.rodata.*)
 .rodata.str1.4
                0x020e0710       0x1e ./cScreenManager.o
                                 0x20 (size before relaxing)
 *fill*         0x020e072e        0x2 ff
 .rodata._ZTV10MenuButton
                0x020e0730       0x10 ./main.o
                0x020e0730                vtable for MenuButton
 .rodata._ZTI10MenuButton
                0x020e0740        0xc ./main.o
                0x020e0740                typeinfo for MenuButton
 .rodata._ZTS10MenuButton
                0x020e074c       0x10 ./main.o
                0x020e074c                typeinfo name for MenuButton
 .rodata._ZTI11basicObject
                0x020e075c        0x8 ./main.o
                0x020e075c                typeinfo for basicObject
 .rodata._ZTS11basicObject
                0x020e0764       0x10 ./main.o
                0x020e0764                typeinfo name for basicObject
 *fill*         0x020e0774        0x4 ff
 .rodata._ZTV11basicObject
                0x020e0778       0x10 ./main.o
                0x020e0778                vtable for basicObject
 .rodata._ZTIPKe
                0x020e0788       0x10 C:\devkitPro\devkitARM\arm-eabi\lib\libstdc++.a(tinfo2.o)
                0x020e0788                typeinfo for long double const*
 .rodata._ZTIPe
                0x020e0798       0x10 C:\devkitPro\devkitARM\arm-eabi\lib\libstdc++.a(tinfo2.o)
                0x020e0798                typeinfo for long double*
 .rodata._ZTIe  0x020e07a8        0x8 C:\devkitPro\devkitARM\arm-eabi\lib\libstdc++.a(tinfo2.o)
                0x020e07a8                typeinfo for long double
 .rodata._ZTIPKd
                0x020e07b0       0x10 C:\devkitPro\devkitARM\arm-eabi\lib\libstdc++.a(tinfo2.o)
                0x020e07b0                typeinfo for double const*
 .rodata._ZTIPd
                0x020e07c0       0x10 C:\devkitPro\devkitARM\arm-eabi\lib\libstdc++.a(tinfo2.o)
                0x020e07c0                typeinfo for double*
 .rodata._ZTId  0x020e07d0        0x8 C:\devkitPro\devkitARM\arm-eabi\lib\libstdc++.a(tinfo2.o)
                0x020e07d0                typeinfo for double
 .rodata._ZTIPKf
                0x020e07d8       0x10 C:\devkitPro\devkitARM\arm-eabi\lib\libstdc++.a(tinfo2.o)
                0x020e07d8                typeinfo for float const*
 .rodata._ZTIPf
                0x020e07e8       0x10 C:\devkitPro\devkitARM\arm-eabi\lib\libstdc++.a(tinfo2.o)
                0x020e07e8                typeinfo for float*
 .rodata._ZTIf  0x020e07f8        0x8 C:\devkitPro\devkitARM\arm-eabi\lib\libstdc++.a(tinfo2.o)
                0x020e07f8                typeinfo for float
 .rodata._ZTIPKy
                0x020e0800       0x10 C:\devkitPro\devkitARM\arm-eabi\lib\libstdc++.a(tinfo2.o)
                0x020e0800                typeinfo for unsigned long long const*
 .rodata._ZTIPy
                0x020e0810       0x10 C:\devkitPro\devkitARM\arm-eabi\lib\libstdc++.a(tinfo2.o)
                0x020e0810                typeinfo for unsigned long long*
 .rodata._ZTIy  0x020e0820        0x8 C:\devkitPro\devkitARM\arm-eabi\lib\libstdc++.a(tinfo2.o)
                0x020e0820                typeinfo for unsigned long long
 .rodata._ZTIPKx
                0x020e0828       0x10 C:\devkitPro\devkitARM\arm-eabi\lib\libstdc++.a(tinfo2.o)
                0x020e0828                typeinfo for long long const*
 .rodata._ZTIPx
                0x020e0838       0x10 C:\devkitPro\devkitARM\arm-eabi\lib\libstdc++.a(tinfo2.o)
                0x020e0838                typeinfo for long long*
 .rodata._ZTIx  0x020e0848        0x8 C:\devkitPro\devkitARM\arm-eabi\lib\libstdc++.a(tinfo2.o)
                0x020e0848                typeinfo for long long
 .rodata._ZTIPKm
                0x020e0850       0x10 C:\devkitPro\devkitARM\arm-eabi\lib\libstdc++.a(tinfo2.o)
                0x020e0850                typeinfo for unsigned long const*
 .rodata._ZTIPm
                0x020e0860       0x10 C:\devkitPro\devkitARM\arm-eabi\lib\libstdc++.a(tinfo2.o)
                0x020e0860                typeinfo for unsigned long*
 .rodata._ZTIm  0x020e0870        0x8 C:\devkitPro\devkitARM\arm-eabi\lib\libstdc++.a(tinfo2.o)
                0x020e0870                typeinfo for unsigned long
 .rodata._ZTIPKl
                0x020e0878       0x10 C:\devkitPro\devkitARM\arm-eabi\lib\libstdc++.a(tinfo2.o)
                0x020e0878                typeinfo for long const*
 .rodata._ZTIPl
                0x020e0888       0x10 C:\devkitPro\devkitARM\arm-eabi\lib\libstdc++.a(tinfo2.o)
                0x020e0888                typeinfo for long*
 .rodata._ZTIl  0x020e0898        0x8 C:\devkitPro\devkitARM\arm-eabi\lib\libstdc++.a(tinfo2.o)
                0x020e0898                typeinfo for long
 .rodata._ZTIPKj
                0x020e08a0       0x10 C:\devkitPro\devkitARM\arm-eabi\lib\libstdc++.a(tinfo2.o)
                0x020e08a0                typeinfo for unsigned int const*
 .rodata._ZTIPj
                0x020e08b0       0x10 C:\devkitPro\devkitARM\arm-eabi\lib\libstdc++.a(tinfo2.o)
                0x020e08b0                typeinfo for unsigned int*
 .rodata._ZTIj  0x020e08c0        0x8 C:\devkitPro\devkitARM\arm-eabi\lib\libstdc++.a(tinfo2.o)
                0x020e08c0                typeinfo for unsigned int
 .rodata._ZTIPKi
                0x020e08c8       0x10 C:\devkitPro\devkitARM\arm-eabi\lib\libstdc++.a(tinfo2.o)
                0x020e08c8                typeinfo for int const*
 .rodata._ZTIPi
                0x020e08d8       0x10 C:\devkitPro\devkitARM\arm-eabi\lib\libstdc++.a(tinfo2.o)
                0x020e08d8                typeinfo for int*
 .rodata._ZTIi  0x020e08e8        0x8 C:\devkitPro\devkitARM\arm-eabi\lib\libstdc++.a(tinfo2.o)
                0x020e08e8                typeinfo for int
 .rodata._ZTIPKt
                0x020e08f0       0x10 C:\devkitPro\devkitARM\arm-eabi\lib\libstdc++.a(tinfo2.o)
                0x020e08f0                typeinfo for unsigned short const*
 .rodata._ZTIPt
                0x020e0900       0x10 C:\devkitPro\devkitARM\arm-eabi\lib\libstdc++.a(tinfo2.o)
                0x020e0900                typeinfo for unsigned short*
 .rodata._ZTIt  0x020e0910        0x8 C:\devkitPro\devkitARM\arm-eabi\lib\libstdc++.a(tinfo2.o)
                0x020e0910                typeinfo for unsigned short
 .rodata._ZTIPKs
                0x020e0918       0x10 C:\devkitPro\devkitARM\arm-eabi\lib\libstdc++.a(tinfo2.o)
                0x020e0918                typeinfo for short const*
 .rodata._ZTIPs
                0x020e0928       0x10 C:\devkitPro\devkitARM\arm-eabi\lib\libstdc++.a(tinfo2.o)
                0x020e0928                typeinfo for short*
 .rodata._ZTIs  0x020e0938        0x8 C:\devkitPro\devkitARM\arm-eabi\lib\libstdc++.a(tinfo2.o)
                0x020e0938                typeinfo for short
 .rodata._ZTIPKh
                0x020e0940       0x10 C:\devkitPro\devkitARM\arm-eabi\lib\libstdc++.a(tinfo2.o)
                0x020e0940                typeinfo for unsigned char const*
 .rodata._ZTIPh
                0x020e0950       0x10 C:\devkitPro\devkitARM\arm-eabi\lib\libstdc++.a(tinfo2.o)
                0x020e0950                typeinfo for unsigned char*
 .rodata._ZTIh  0x020e0960        0x8 C:\devkitPro\devkitARM\arm-eabi\lib\libstdc++.a(tinfo2.o)
                0x020e0960                typeinfo for unsigned char
 .rodata._ZTIPKa
                0x020e0968       0x10 C:\devkitPro\devkitARM\arm-eabi\lib\libstdc++.a(tinfo2.o)
                0x020e0968                typeinfo for signed char const*
 .rodata._ZTIPa
                0x020e0978       0x10 C:\devkitPro\devkitARM\arm-eabi\lib\libstdc++.a(tinfo2.o)
                0x020e0978                typeinfo for signed char*
 .rodata._ZTIa  0x020e0988        0x8 C:\devkitPro\devkitARM\arm-eabi\lib\libstdc++.a(tinfo2.o)
                0x020e0988                typeinfo for signed char
 .rodata._ZTIPKc
                0x020e0990       0x10 C:\devkitPro\devkitARM\arm-eabi\lib\libstdc++.a(tinfo2.o)
                0x020e0990                typeinfo for char const*
 .rodata._ZTIPc
                0x020e09a0       0x10 C:\devkitPro\devkitARM\arm-eabi\lib\libstdc++.a(tinfo2.o)
                0x020e09a0                typeinfo for char*
 .rodata._ZTIc  0x020e09b0        0x8 C:\devkitPro\devkitARM\arm-eabi\lib\libstdc++.a(tinfo2.o)
                0x020e09b0                typeinfo for char
 .rodata._ZTIPKw
                0x020e09b8       0x10 C:\devkitPro\devkitARM\arm-eabi\lib\libstdc++.a(tinfo2.o)
                0x020e09b8                typeinfo for wchar_t const*
 .rodata._ZTIPw
                0x020e09c8       0x10 C:\devkitPro\devkitARM\arm-eabi\lib\libstdc++.a(tinfo2.o)
                0x020e09c8                typeinfo for wchar_t*
 .rodata._ZTIw  0x020e09d8        0x8 C:\devkitPro\devkitARM\arm-eabi\lib\libstdc++.a(tinfo2.o)
                0x020e09d8                typeinfo for wchar_t
 .rodata._ZTIPKb
                0x020e09e0       0x10 C:\devkitPro\devkitARM\arm-eabi\lib\libstdc++.a(tinfo2.o)
                0x020e09e0                typeinfo for bool const*
 .rodata._ZTIPb
                0x020e09f0       0x10 C:\devkitPro\devkitARM\arm-eabi\lib\libstdc++.a(tinfo2.o)
                0x020e09f0                typeinfo for bool*
 .rodata._ZTIb  0x020e0a00        0x8 C:\devkitPro\devkitARM\arm-eabi\lib\libstdc++.a(tinfo2.o)
                0x020e0a00                typeinfo for bool
 .rodata._ZTIPKv
                0x020e0a08       0x10 C:\devkitPro\devkitARM\arm-eabi\lib\libstdc++.a(tinfo2.o)
                0x020e0a08                typeinfo for void const*
 .rodata._ZTIPv
                0x020e0a18       0x10 C:\devkitPro\devkitARM\arm-eabi\lib\libstdc++.a(tinfo2.o)
                0x020e0a18                typeinfo for void*
 .rodata._ZTIv  0x020e0a28        0x8 C:\devkitPro\devkitARM\arm-eabi\lib\libstdc++.a(tinfo2.o)
                0x020e0a28                typeinfo for void
 .rodata._ZTSPKe
                0x020e0a30        0x4 C:\devkitPro\devkitARM\arm-eabi\lib\libstdc++.a(tinfo2.o)
                0x020e0a30                typeinfo name for long double const*
 .rodata._ZTSPe
                0x020e0a34        0x4 C:\devkitPro\devkitARM\arm-eabi\lib\libstdc++.a(tinfo2.o)
                0x020e0a34                typeinfo name for long double*
 .rodata._ZTSe  0x020e0a38        0x4 C:\devkitPro\devkitARM\arm-eabi\lib\libstdc++.a(tinfo2.o)
                0x020e0a38                typeinfo name for long double
 .rodata._ZTSPKd
                0x020e0a3c        0x4 C:\devkitPro\devkitARM\arm-eabi\lib\libstdc++.a(tinfo2.o)
                0x020e0a3c                typeinfo name for double const*
 .rodata._ZTSPd
                0x020e0a40        0x4 C:\devkitPro\devkitARM\arm-eabi\lib\libstdc++.a(tinfo2.o)
                0x020e0a40                typeinfo name for double*
 .rodata._ZTSd  0x020e0a44        0x4 C:\devkitPro\devkitARM\arm-eabi\lib\libstdc++.a(tinfo2.o)
                0x020e0a44                typeinfo name for double
 .rodata._ZTSPKf
                0x020e0a48        0x4 C:\devkitPro\devkitARM\arm-eabi\lib\libstdc++.a(tinfo2.o)
                0x020e0a48                typeinfo name for float const*
 .rodata._ZTSPf
                0x020e0a4c        0x4 C:\devkitPro\devkitARM\arm-eabi\lib\libstdc++.a(tinfo2.o)
                0x020e0a4c                typeinfo name for float*
 .rodata._ZTSf  0x020e0a50        0x4 C:\devkitPro\devkitARM\arm-eabi\lib\libstdc++.a(tinfo2.o)
                0x020e0a50                typeinfo name for float
 .rodata._ZTSPKy
                0x020e0a54        0x4 C:\devkitPro\devkitARM\arm-eabi\lib\libstdc++.a(tinfo2.o)
                0x020e0a54                typeinfo name for unsigned long long const*
 .rodata._ZTSPy
                0x020e0a58        0x4 C:\devkitPro\devkitARM\arm-eabi\lib\libstdc++.a(tinfo2.o)
                0x020e0a58                typeinfo name for unsigned long long*
 .rodata._ZTSy  0x020e0a5c        0x4 C:\devkitPro\devkitARM\arm-eabi\lib\libstdc++.a(tinfo2.o)
                0x020e0a5c                typeinfo name for unsigned long long
 .rodata._ZTSPKx
                0x020e0a60        0x4 C:\devkitPro\devkitARM\arm-eabi\lib\libstdc++.a(tinfo2.o)
                0x020e0a60                typeinfo name for long long const*
 .rodata._ZTSPx
                0x020e0a64        0x4 C:\devkitPro\devkitARM\arm-eabi\lib\libstdc++.a(tinfo2.o)
                0x020e0a64                typeinfo name for long long*
 .rodata._ZTSx  0x020e0a68        0x4 C:\devkitPro\devkitARM\arm-eabi\lib\libstdc++.a(tinfo2.o)
                0x020e0a68                typeinfo name for long long
 .rodata._ZTSPKm
                0x020e0a6c        0x4 C:\devkitPro\devkitARM\arm-eabi\lib\libstdc++.a(tinfo2.o)
                0x020e0a6c                typeinfo name for unsigned long const*
 .rodata._ZTSPm
                0x020e0a70        0x4 C:\devkitPro\devkitARM\arm-eabi\lib\libstdc++.a(tinfo2.o)
                0x020e0a70                typeinfo name for unsigned long*
 .rodata._ZTSm  0x020e0a74        0x4 C:\devkitPro\devkitARM\arm-eabi\lib\libstdc++.a(tinfo2.o)
                0x020e0a74                typeinfo name for unsigned long
 .rodata._ZTSPKl
                0x020e0a78        0x4 C:\devkitPro\devkitARM\arm-eabi\lib\libstdc++.a(tinfo2.o)
                0x020e0a78                typeinfo name for long const*
 .rodata._ZTSPl
                0x020e0a7c        0x4 C:\devkitPro\devkitARM\arm-eabi\lib\libstdc++.a(tinfo2.o)
                0x020e0a7c                typeinfo name for long*
 .rodata._ZTSl  0x020e0a80        0x4 C:\devkitPro\devkitARM\arm-eabi\lib\libstdc++.a(tinfo2.o)
                0x020e0a80                typeinfo name for long
 .rodata._ZTSPKj
                0x020e0a84        0x4 C:\devkitPro\devkitARM\arm-eabi\lib\libstdc++.a(tinfo2.o)
                0x020e0a84                typeinfo name for unsigned int const*
 .rodata._ZTSPj
                0x020e0a88        0x4 C:\devkitPro\devkitARM\arm-eabi\lib\libstdc++.a(tinfo2.o)
                0x020e0a88                typeinfo name for unsigned int*
 .rodata._ZTSj  0x020e0a8c        0x4 C:\devkitPro\devkitARM\arm-eabi\lib\libstdc++.a(tinfo2.o)
                0x020e0a8c                typeinfo name for unsigned int
 .rodata._ZTSPKi
                0x020e0a90        0x4 C:\devkitPro\devkitARM\arm-eabi\lib\libstdc++.a(tinfo2.o)
                0x020e0a90                typeinfo name for int const*
 .rodata._ZTSPi
                0x020e0a94        0x4 C:\devkitPro\devkitARM\arm-eabi\lib\libstdc++.a(tinfo2.o)
                0x020e0a94                typeinfo name for int*
 .rodata._ZTSi  0x020e0a98        0x4 C:\devkitPro\devkitARM\arm-eabi\lib\libstdc++.a(tinfo2.o)
                0x020e0a98                typeinfo name for int
 .rodata._ZTSPKt
                0x020e0a9c        0x4 C:\devkitPro\devkitARM\arm-eabi\lib\libstdc++.a(tinfo2.o)
                0x020e0a9c                typeinfo name for unsigned short const*
 .rodata._ZTSPt
                0x020e0aa0        0x4 C:\devkitPro\devkitARM\arm-eabi\lib\libstdc++.a(tinfo2.o)
                0x020e0aa0                typeinfo name for unsigned short*
 .rodata._ZTSt  0x020e0aa4        0x4 C:\devkitPro\devkitARM\arm-eabi\lib\libstdc++.a(tinfo2.o)
                0x020e0aa4                typeinfo name for unsigned short
 .rodata._ZTSPKs
                0x020e0aa8        0x4 C:\devkitPro\devkitARM\arm-eabi\lib\libstdc++.a(tinfo2.o)
                0x020e0aa8                typeinfo name for short const*
 .rodata._ZTSPs
                0x020e0aac        0x4 C:\devkitPro\devkitARM\arm-eabi\lib\libstdc++.a(tinfo2.o)
                0x020e0aac                typeinfo name for short*
 .rodata._ZTSs  0x020e0ab0        0x4 C:\devkitPro\devkitARM\arm-eabi\lib\libstdc++.a(tinfo2.o)
                0x020e0ab0                typeinfo name for short
 .rodata._ZTSPKh
                0x020e0ab4        0x4 C:\devkitPro\devkitARM\arm-eabi\lib\libstdc++.a(tinfo2.o)
                0x020e0ab4                typeinfo name for unsigned char const*
 .rodata._ZTSPh
                0x020e0ab8        0x4 C:\devkitPro\devkitARM\arm-eabi\lib\libstdc++.a(tinfo2.o)
                0x020e0ab8                typeinfo name for unsigned char*
 .rodata._ZTSh  0x020e0abc        0x4 C:\devkitPro\devkitARM\arm-eabi\lib\libstdc++.a(tinfo2.o)
                0x020e0abc                typeinfo name for unsigned char
 .rodata._ZTSPKa
                0x020e0ac0        0x4 C:\devkitPro\devkitARM\arm-eabi\lib\libstdc++.a(tinfo2.o)
                0x020e0ac0                typeinfo name for signed char const*
 .rodata._ZTSPa
                0x020e0ac4        0x4 C:\devkitPro\devkitARM\arm-eabi\lib\libstdc++.a(tinfo2.o)
                0x020e0ac4                typeinfo name for signed char*
 .rodata._ZTSa  0x020e0ac8        0x4 C:\devkitPro\devkitARM\arm-eabi\lib\libstdc++.a(tinfo2.o)
                0x020e0ac8                typeinfo name for signed char
 .rodata._ZTSPKc
                0x020e0acc        0x4 C:\devkitPro\devkitARM\arm-eabi\lib\libstdc++.a(tinfo2.o)
                0x020e0acc                typeinfo name for char const*
 .rodata._ZTSPc
                0x020e0ad0        0x4 C:\devkitPro\devkitARM\arm-eabi\lib\libstdc++.a(tinfo2.o)
                0x020e0ad0                typeinfo name for char*
 .rodata._ZTSc  0x020e0ad4        0x4 C:\devkitPro\devkitARM\arm-eabi\lib\libstdc++.a(tinfo2.o)
                0x020e0ad4                typeinfo name for char
 .rodata._ZTSPKw
                0x020e0ad8        0x4 C:\devkitPro\devkitARM\arm-eabi\lib\libstdc++.a(tinfo2.o)
                0x020e0ad8                typeinfo name for wchar_t const*
 .rodata._ZTSPw
                0x020e0adc        0x4 C:\devkitPro\devkitARM\arm-eabi\lib\libstdc++.a(tinfo2.o)
                0x020e0adc                typeinfo name for wchar_t*
 .rodata._ZTSw  0x020e0ae0        0x4 C:\devkitPro\devkitARM\arm-eabi\lib\libstdc++.a(tinfo2.o)
                0x020e0ae0                typeinfo name for wchar_t
 .rodata._ZTSPKb
                0x020e0ae4        0x4 C:\devkitPro\devkitARM\arm-eabi\lib\libstdc++.a(tinfo2.o)
                0x020e0ae4                typeinfo name for bool const*
 .rodata._ZTSPb
                0x020e0ae8        0x4 C:\devkitPro\devkitARM\arm-eabi\lib\libstdc++.a(tinfo2.o)
                0x020e0ae8                typeinfo name for bool*
 .rodata._ZTSb  0x020e0aec        0x4 C:\devkitPro\devkitARM\arm-eabi\lib\libstdc++.a(tinfo2.o)
                0x020e0aec                typeinfo name for bool
 .rodata._ZTSPKv
                0x020e0af0        0x4 C:\devkitPro\devkitARM\arm-eabi\lib\libstdc++.a(tinfo2.o)
                0x020e0af0                typeinfo name for void const*
 .rodata._ZTSPv
                0x020e0af4        0x4 C:\devkitPro\devkitARM\arm-eabi\lib\libstdc++.a(tinfo2.o)
                0x020e0af4                typeinfo name for void*
 .rodata._ZTSv  0x020e0af8        0x4 C:\devkitPro\devkitARM\arm-eabi\lib\libstdc++.a(tinfo2.o)
                0x020e0af8                typeinfo name for void
 .rodata.str1.4
                0x020e0afc       0x92 C:\devkitPro\devkitARM\arm-eabi\lib\libstdc++.a(vterminate.o)
                                 0x94 (size before relaxing)
 *fill*         0x020e0b8e        0x2 ff
 .rodata.str1.4
                0x020e0b90      0x5fc C:\devkitPro\devkitARM\arm-eabi\lib\libstdc++.a(cp-demangle.o)
                                0x630 (size before relaxing)
 .rodata.str1.4
                0x020e118c        0x5 C:\devkitPro\devkitARM\arm-eabi\lib\libm.a(lib_a-w_sqrt.o)
                                  0x8 (size before relaxing)
 *fill*         0x020e1191        0x3 ff
 .rodata.str1.4
                0x020e1194       0x2b C:\devkitPro\devkitARM\arm-eabi\lib\libc.a(lib_a-assert.o)
                                 0x2c (size before relaxing)
 *fill*         0x020e11bf        0x1 ff
 .rodata.str1.4
                0x020e11c0        0x2 C:\devkitPro\devkitARM\arm-eabi\lib\libc.a(lib_a-impure.o)
                                  0x4 (size before relaxing)
 *fill*         0x020e11c2        0x2 ff
 .rodata.str1.4
                0x020e11c4       0x4a C:\devkitPro\devkitARM\arm-eabi\lib\libc.a(lib_a-vfiprintf.o)
                                 0x4c (size before relaxing)
 *fill*         0x020e120e        0x2 ff
 .rodata.str1.4
                0x020e1210       0x1e C:\devkitPro\devkitARM\arm-eabi\lib\libc.a(lib_a-wctomb_r.o)
                                 0x20 (size before relaxing)
 *fill*         0x020e122e        0x2 ff
 .rodata.str1.4
                0x020e1230        0xf C:\devkitPro\devkitARM\arm-eabi\lib\libc.a(lib_a-locale.o)
                                 0x18 (size before relaxing)
 *fill*         0x020e123f        0x1 ff
 .rodata.str1.4
                0x020e1240        0x8 C:\devkitPro\devkitARM\arm-eabi\lib\libsysbase.a(iosupport.o)
 *(.gnu.linkonce.r*)
                0x020e1248                . = ALIGN (0x4)

.ARM.extab      0x020e1248      0x164
 *(.ARM.extab* .gnu.linkonce.armextab.*)
 .ARM.extab     0x020e1248        0x0 ./basicObject.o
 .ARM.extab     0x020e1248       0x24 ./cDraw.o
 .ARM.extab     0x020e126c        0x0 ./cMath.o
 .ARM.extab     0x020e126c        0x0 ./cScreenManager.o
 .ARM.extab     0x020e126c       0x20 ./main.o
 .ARM.extab.text._ZN11basicObjectD0Ev
                0x020e128c        0x0 ./main.o
 .ARM.extab.text._ZN11basicObjectD1Ev
                0x020e128c        0x0 ./main.o
 .ARM.extab.text._ZN10MenuButtonD1Ev
                0x020e128c        0x0 ./main.o
 .ARM.extab.text._ZN10MenuButtonD0Ev
                0x020e128c        0x0 ./main.o
 .ARM.extab     0x020e128c        0x0 C:\devkitPro\devkitARM\arm-eabi\lib\libstdc++.a(del_op.o)
 .ARM.extab     0x020e128c        0x0 C:\devkitPro\devkitARM\arm-eabi\lib\libstdc++.a(eh_arm.o)
 .ARM.extab     0x020e128c        0x0 C:\devkitPro\devkitARM\arm-eabi\lib\libstdc++.a(eh_aux_runtime.o)
 .ARM.extab     0x020e128c        0x0 C:\devkitPro\devkitARM\arm-eabi\lib\libstdc++.a(eh_globals.o)
 .ARM.extab     0x020e128c       0x30 C:\devkitPro\devkitARM\arm-eabi\lib\libstdc++.a(eh_personality.o)
 .ARM.extab     0x020e12bc       0x20 C:\devkitPro\devkitARM\arm-eabi\lib\libstdc++.a(eh_terminate.o)
 .ARM.extab     0x020e12dc        0x0 C:\devkitPro\devkitARM\arm-eabi\lib\libstdc++.a(eh_throw.o)
 .ARM.extab     0x020e12dc       0x24 C:\devkitPro\devkitARM\arm-eabi\lib\libstdc++.a(new_op.o)
 .ARM.extab     0x020e1300        0x0 C:\devkitPro\devkitARM\arm-eabi\lib\libstdc++.a(tinfo.o)
 .ARM.extab     0x020e1300        0x0 C:\devkitPro\devkitARM\arm-eabi\lib\libstdc++.a(tinfo2.o)
 .ARM.extab.text._ZNK10__cxxabiv117__pbase_type_info15__pointer_catchEPKS0_PPvj
                0x020e1300        0x0 C:\devkitPro\devkitARM\arm-eabi\lib\libstdc++.a(tinfo2.o)
 .ARM.extab     0x020e1300       0x40 C:\devkitPro\devkitARM\arm-eabi\lib\libstdc++.a(vterminate.o)
 .ARM.extab     0x020e1340       0x20 C:\devkitPro\devkitARM\arm-eabi\lib\libstdc++.a(eh_alloc.o)
 .ARM.extab     0x020e1360       0x2c C:\devkitPro\devkitARM\arm-eabi\lib\libstdc++.a(eh_call.o)
 .ARM.extab     0x020e138c       0x20 C:\devkitPro\devkitARM\arm-eabi\lib\libstdc++.a(eh_catch.o)
 .ARM.extab     0x020e13ac        0x0 C:\devkitPro\devkitARM\arm-eabi\lib\libstdc++.a(eh_exception.o)
 .ARM.extab     0x020e13ac        0x0 C:\devkitPro\devkitARM\arm-eabi\lib\libstdc++.a(eh_type.o)
 .ARM.extab     0x020e13ac        0x0 C:\devkitPro\devkitARM\arm-eabi\lib\libstdc++.a(new_handler.o)
 .ARM.extab     0x020e13ac        0x0 C:\devkitPro\devkitARM\lib\gcc\arm-eabi\4.1.2\libgcc.a(unwind-arm.o)
 .ARM.extab     0x020e13ac        0x0 C:\devkitPro\devkitARM\lib\gcc\arm-eabi\4.1.2\libgcc.a(pr-support.o)
                0x020e13ac                __exidx_start = .

.ARM.exidx      0x020e13ac      0x508
 *(.ARM.exidx* .gnu.linkonce.armexidx.*)
 .ARM.exidx     0x020e13ac       0x20 ./basicObject.o
 .ARM.exidx     0x020e13cc       0x30 ./cDraw.o
 .ARM.exidx     0x020e13fc        0x8 ./cMath.o
 .ARM.exidx     0x020e1404       0x18 ./cScreenManager.o
 .ARM.exidx     0x020e141c       0x18 ./main.o
 .ARM.exidx.text._ZN11basicObjectD0Ev
                0x020e188c        0x8 ./main.o
 .ARM.exidx.text._ZN11basicObjectD1Ev
                0x020e1894        0x8 ./main.o
 .ARM.exidx.text._ZN10MenuButtonD1Ev
                0x020e189c        0x8 ./main.o
 .ARM.exidx.text._ZN10MenuButtonD0Ev
                0x020e18a4        0x8 ./main.o
 .ARM.exidx     0x020e1434        0x8 C:\devkitPro\devkitARM\arm-eabi\lib\libstdc++.a(del_op.o)
 .ARM.exidx     0x020e143c       0x18 C:\devkitPro\devkitARM\arm-eabi\lib\libstdc++.a(eh_arm.o)
 .ARM.exidx     0x020e1454       0x10 C:\devkitPro\devkitARM\arm-eabi\lib\libstdc++.a(eh_aux_runtime.o)
 .ARM.exidx     0x020e1464       0x10 C:\devkitPro\devkitARM\arm-eabi\lib\libstdc++.a(eh_globals.o)
 .ARM.exidx     0x020e1474       0x30 C:\devkitPro\devkitARM\arm-eabi\lib\libstdc++.a(eh_personality.o)
 .ARM.exidx     0x020e14a4       0x30 C:\devkitPro\devkitARM\arm-eabi\lib\libstdc++.a(eh_terminate.o)
 .ARM.exidx     0x020e14d4       0x18 C:\devkitPro\devkitARM\arm-eabi\lib\libstdc++.a(eh_throw.o)
 .ARM.exidx     0x020e14ec        0x8 C:\devkitPro\devkitARM\arm-eabi\lib\libstdc++.a(new_op.o)
 .ARM.exidx     0x020e14f4      0x118 C:\devkitPro\devkitARM\arm-eabi\lib\libstdc++.a(tinfo.o)
 .ARM.exidx     0x020e160c       0xd8 C:\devkitPro\devkitARM\arm-eabi\lib\libstdc++.a(tinfo2.o)
 .ARM.exidx.text._ZNK10__cxxabiv117__pbase_type_info15__pointer_catchEPKS0_PPvj
                0x020e18ac        0x8 C:\devkitPro\devkitARM\arm-eabi\lib\libstdc++.a(tinfo2.o)
 .ARM.exidx     0x020e16e4        0x8 C:\devkitPro\devkitARM\arm-eabi\lib\libstdc++.a(vterminate.o)
 .ARM.exidx     0x020e16ec       0x10 C:\devkitPro\devkitARM\arm-eabi\lib\libstdc++.a(eh_alloc.o)
 .ARM.exidx     0x020e16fc       0x10 C:\devkitPro\devkitARM\arm-eabi\lib\libstdc++.a(eh_call.o)
 .ARM.exidx     0x020e170c       0x20 C:\devkitPro\devkitARM\arm-eabi\lib\libstdc++.a(eh_catch.o)
 .ARM.exidx     0x020e172c       0x38 C:\devkitPro\devkitARM\arm-eabi\lib\libstdc++.a(eh_exception.o)
 .ARM.exidx     0x020e1764        0x8 C:\devkitPro\devkitARM\arm-eabi\lib\libstdc++.a(eh_type.o)
 .ARM.exidx     0x020e176c       0x20 C:\devkitPro\devkitARM\arm-eabi\lib\libstdc++.a(new_handler.o)
 .ARM.exidx     0x020e178c       0xc8 C:\devkitPro\devkitARM\lib\gcc\arm-eabi\4.1.2\libgcc.a(unwind-arm.o)
 .ARM.exidx     0x020e1854       0x38 C:\devkitPro\devkitARM\lib\gcc\arm-eabi\4.1.2\libgcc.a(pr-support.o)
                0x020e188c                __exidx_end = .
                0x020e188c                . = ALIGN (0x4)
                0x020e188c                PROVIDE (__preinit_array_start, .)

.preinit_array
 *(.preinit_array)
                0x020e188c                PROVIDE (__preinit_array_end, .)
                0x020e188c                PROVIDE (__init_array_start, .)

.init_array     0x020e18b4        0x4
 *(.init_array)
 .init_array    0x020e18b4        0x4 c:/devkitpro/devkitarm/bin/../lib/gcc/arm-eabi/4.1.2/crtbegin.o
                0x020e18b8                PROVIDE (__init_array_end, .)
                0x020e18b8                PROVIDE (__fini_array_start, .)

.fini_array     0x020e18b8        0x4
 *(.fini_array)
 .fini_array    0x020e18b8        0x4 c:/devkitpro/devkitarm/bin/../lib/gcc/arm-eabi/4.1.2/crtbegin.o
                0x020e18bc                PROVIDE (__fini_array_end, .)

.ctors          0x020e18bc        0x0
 *crtbegin.o(.ctors)
 *(EXCLUDE_FILE(*crtend.o) .ctors)
 *(SORT(.ctors.*))
 *(.ctors)
                0x020e18bc                . = ALIGN (0x4)

.dtors          0x020e18bc        0x0
 *crtbegin.o(.dtors)
 *(EXCLUDE_FILE(*crtend.o) .dtors)
 *(SORT(.dtors.*))
 *(.dtors)
                0x020e18bc                . = ALIGN (0x4)

.eh_frame       0x020e18bc        0x4
 *(.eh_frame)
 .eh_frame      0x020e18bc        0x0 c:/devkitpro/devkitarm/bin/../lib/gcc/arm-eabi/4.1.2/crtbegin.o
 .eh_frame      0x020e18bc        0x4 c:/devkitpro/devkitarm/bin/../lib/gcc/arm-eabi/4.1.2/crtend.o
                0x020e18c0                . = ALIGN (0x4)

.gcc_except_table
                0x020e18c0        0x0
 *(.gcc_except_table)
                0x020e18c0                . = ALIGN (0x4)

.jcr            0x020e18c0        0x4
 *(.jcr)
 .jcr           0x020e18c0        0x0 c:/devkitpro/devkitarm/bin/../lib/gcc/arm-eabi/4.1.2/crtbegin.o
 .jcr           0x020e18c0        0x4 c:/devkitpro/devkitarm/bin/../lib/gcc/arm-eabi/4.1.2/crtend.o

.got
 *(.got.plt)
 *(.got)
 *(.rel.got)

.ewram          0x020e18c4        0x0
                0x020e18c4                __ewram_start = <code 342> (.)
 *(.ewram)
 *ewram.*(.text)
                0x020e18c4                . = ALIGN (0x4)

.data           0x020e18c4      0x890
                0x020e18c4                __data_start = <code 342> (.)
 *(.data)
 .data          0x020e18c4        0x0 c:/devkitpro/devkitarm/bin/../lib/gcc/arm-eabi/4.1.2/../../../../arm-eabi/lib/ds_arm9_crt0.o
 .data          0x020e18c4        0x0 c:/devkitpro/devkitarm/bin/../lib/gcc/arm-eabi/4.1.2/crti.o
 .data          0x020e18c4        0x4 c:/devkitpro/devkitarm/bin/../lib/gcc/arm-eabi/4.1.2/crtbegin.o
                0x020e18c4                __dso_handle
 .data          0x020e18c8        0x0 ./basicObject.o
 .data          0x020e18c8        0x0 ./cDraw.o
 .data          0x020e18c8        0x0 ./cMath.o
 .data          0x020e18c8        0x0 ./cScreenManager.o
 .data          0x020e18c8        0x0 ./main.o
 .data          0x020e18c8        0x0 ./menuButton.o
 .data          0x020e18c8        0x0 ./graphics/menu0.o
 .data          0x020e18c8        0x0 ./graphics/menu1.o
 .data          0x020e18c8        0x0 ./graphics/menu2.o
 .data          0x020e18c8        0x0 ./graphics/menu3.o
 .data          0x020e18c8        0x0 ./graphics/minimashers.o
 .data          0x020e18c8        0x0 ./graphics/splash.o
 .data          0x020e18c8        0x0 ./graphics/title.o
 .data          0x020e18c8        0x0 C:\devkitPro\libnds\lib\libnds9.a(initSystem.o)
 .data          0x020e18c8        0x0 C:\devkitPro\libnds\lib\libnds9.a(touch.o)
 .data          0x020e18c8        0x0 C:\devkitPro\libnds\lib\libnds9.a(video.o)
 .data          0x020e18c8        0x0 C:\devkitPro\libnds\lib\libnds9.a(interrupts.o)
 .data          0x020e18c8        0x0 C:\devkitPro\libnds\lib\libnds9.a(biosCalls.o)
 .data          0x020e18c8        0x0 C:\devkitPro\libnds\lib\libnds9.a(interruptDispatcher.o)
 .data          0x020e18c8        0x0 C:\devkitPro\devkitARM\arm-eabi\lib\libstdc++.a(del_op.o)
 .data          0x020e18c8        0x0 C:\devkitPro\devkitARM\arm-eabi\lib\libstdc++.a(eh_arm.o)
 .data          0x020e18c8        0x0 C:\devkitPro\devkitARM\arm-eabi\lib\libstdc++.a(eh_aux_runtime.o)
 .data          0x020e18c8        0x0 C:\devkitPro\devkitARM\arm-eabi\lib\libstdc++.a(eh_globals.o)
 .data          0x020e18c8        0x0 C:\devkitPro\devkitARM\arm-eabi\lib\libstdc++.a(eh_personality.o)
 .data          0x020e18c8        0x0 C:\devkitPro\devkitARM\arm-eabi\lib\libstdc++.a(eh_terminate.o)
 .data          0x020e18c8        0x4 C:\devkitPro\devkitARM\arm-eabi\lib\libstdc++.a(eh_term_handler.o)
                0x020e18c8                __cxxabiv1::__terminate_handler
 .data          0x020e18cc        0x0 C:\devkitPro\devkitARM\arm-eabi\lib\libstdc++.a(eh_throw.o)
 .data          0x020e18cc        0x4 C:\devkitPro\devkitARM\arm-eabi\lib\libstdc++.a(eh_unex_handler.o)
                0x020e18cc                __cxxabiv1::__unexpected_handler
 .data          0x020e18d0        0x0 C:\devkitPro\devkitARM\arm-eabi\lib\libstdc++.a(new_op.o)
 .data          0x020e18d0        0x0 C:\devkitPro\devkitARM\arm-eabi\lib\libstdc++.a(tinfo.o)
 .data          0x020e18d0        0x0 C:\devkitPro\devkitARM\arm-eabi\lib\libstdc++.a(tinfo2.o)
 .data          0x020e18d0        0x0 C:\devkitPro\devkitARM\arm-eabi\lib\libstdc++.a(vterminate.o)
 .data          0x020e18d0        0x0 C:\devkitPro\devkitARM\arm-eabi\lib\libstdc++.a(cp-demangle.o)
 .data          0x020e18d0        0x0 C:\devkitPro\devkitARM\arm-eabi\lib\libstdc++.a(eh_alloc.o)
 .data          0x020e18d0        0x0 C:\devkitPro\devkitARM\arm-eabi\lib\libstdc++.a(eh_call.o)
 .data          0x020e18d0        0x0 C:\devkitPro\devkitARM\arm-eabi\lib\libstdc++.a(eh_catch.o)
 .data          0x020e18d0        0x0 C:\devkitPro\devkitARM\arm-eabi\lib\libstdc++.a(eh_exception.o)
 .data          0x020e18d0        0x0 C:\devkitPro\devkitARM\arm-eabi\lib\libstdc++.a(eh_type.o)
 .data          0x020e18d0        0x0 C:\devkitPro\devkitARM\arm-eabi\lib\libstdc++.a(new_handler.o)
 .data          0x020e18d0        0x0 C:\devkitPro\devkitARM\arm-eabi\lib\libm.a(lib_a-s_round.o)
 .data          0x020e18d0        0x0 C:\devkitPro\devkitARM\arm-eabi\lib\libm.a(lib_a-w_sqrt.o)
 .data          0x020e18d0        0x0 C:\devkitPro\devkitARM\arm-eabi\lib\libm.a(lib_a-e_sqrt.o)
 .data          0x020e18d0        0x0 C:\devkitPro\devkitARM\arm-eabi\lib\libm.a(lib_a-s_isnand.o)
 .data          0x020e18d0        0x1 C:\devkitPro\devkitARM\arm-eabi\lib\libm.a(lib_a-s_lib_ver.o)
                0x020e18d0                __fdlib_version
 .data          0x020e18d1        0x0 C:\devkitPro\devkitARM\arm-eabi\lib\libm.a(lib_a-s_matherr.o)
 .data          0x020e18d1        0x0 C:\devkitPro\devkitARM\lib\gcc\arm-eabi\4.1.2\libgcc.a(_divsi3.o)
 .data          0x020e18d1        0x0 C:\devkitPro\devkitARM\lib\gcc\arm-eabi\4.1.2\libgcc.a(_dvmd_tls.o)
 .data          0x020e18d1        0x0 C:\devkitPro\devkitARM\lib\gcc\arm-eabi\4.1.2\libgcc.a(_addsubdf3.o)
 .data          0x020e18d1        0x0 C:\devkitPro\devkitARM\lib\gcc\arm-eabi\4.1.2\libgcc.a(_muldivdf3.o)
 .data          0x020e18d1        0x0 C:\devkitPro\devkitARM\lib\gcc\arm-eabi\4.1.2\libgcc.a(_cmpdf2.o)
 .data          0x020e18d1        0x0 C:\devkitPro\devkitARM\lib\gcc\arm-eabi\4.1.2\libgcc.a(_fixdfsi.o)
 .data          0x020e18d1        0x0 C:\devkitPro\devkitARM\lib\gcc\arm-eabi\4.1.2\libgcc.a(unwind-arm.o)
 .data          0x020e18d1        0x0 C:\devkitPro\devkitARM\lib\gcc\arm-eabi\4.1.2\libgcc.a(libunwind.o)
 .data          0x020e18d1        0x0 C:\devkitPro\devkitARM\lib\gcc\arm-eabi\4.1.2\libgcc.a(pr-support.o)
 .data          0x020e18d1        0x0 C:\devkitPro\devkitARM\arm-eabi\lib\libc.a(lib_a-abort.o)
 .data          0x020e18d1        0x0 C:\devkitPro\devkitARM\arm-eabi\lib\libc.a(lib_a-assert.o)
 .data          0x020e18d1        0x0 C:\devkitPro\devkitARM\arm-eabi\lib\libc.a(lib_a-errno.o)
 .data          0x020e18d1        0x0 C:\devkitPro\devkitARM\arm-eabi\lib\libc.a(lib_a-fiprintf.o)
 .data          0x020e18d1        0x0 C:\devkitPro\devkitARM\arm-eabi\lib\libc.a(lib_a-fputc.o)
 .data          0x020e18d1        0x0 C:\devkitPro\devkitARM\arm-eabi\lib\libc.a(lib_a-fputs.o)
 .data          0x020e18d1        0x0 C:\devkitPro\devkitARM\arm-eabi\lib\libc.a(lib_a-fvwrite.o)
 .data          0x020e18d1        0x0 C:\devkitPro\devkitARM\arm-eabi\lib\libc.a(lib_a-fwrite.o)
 *fill*         0x020e18d1        0x7 ff
 .data          0x020e18d8      0x418 C:\devkitPro\devkitARM\arm-eabi\lib\libc.a(lib_a-impure.o)
                0x020e18d8                _impure_ptr
 .data          0x020e1cf0        0x0 C:\devkitPro\devkitARM\arm-eabi\lib\libc.a(lib_a-init.o)
 .data          0x020e1cf0        0x0 C:\devkitPro\devkitARM\arm-eabi\lib\libc.a(lib_a-malloc.o)
 .data          0x020e1cf0      0x410 C:\devkitPro\devkitARM\arm-eabi\lib\libc.a(lib_a-mallocr.o)
                0x020e20fc                __malloc_sbrk_base
                0x020e1cf0                __malloc_av_
                0x020e20f8                __malloc_trim_threshold
 .data          0x020e2100        0x0 C:\devkitPro\devkitARM\arm-eabi\lib\libc.a(lib_a-memchr.o)
 .data          0x020e2100        0x0 C:\devkitPro\devkitARM\arm-eabi\lib\libc.a(lib_a-memcmp.o)
 .data          0x020e2100        0x0 C:\devkitPro\devkitARM\arm-eabi\lib\libc.a(lib_a-memcpy.o)
 .data          0x020e2100        0x0 C:\devkitPro\devkitARM\arm-eabi\lib\libc.a(lib_a-memmove.o)
 .data          0x020e2100        0x0 C:\devkitPro\devkitARM\arm-eabi\lib\libc.a(lib_a-memset.o)
 .data          0x020e2100        0x0 C:\devkitPro\devkitARM\arm-eabi\lib\libc.a(lib_a-mlock.o)
 .data          0x020e2100        0x0 C:\devkitPro\devkitARM\arm-eabi\lib\libc.a(lib_a-putc.o)
 .data          0x020e2100        0x0 C:\devkitPro\devkitARM\arm-eabi\lib\libc.a(lib_a-realloc.o)
 .data          0x020e2100        0x0 C:\devkitPro\devkitARM\arm-eabi\lib\libc.a(lib_a-reallocr.o)
 .data          0x020e2100        0x0 C:\devkitPro\devkitARM\arm-eabi\lib\libc.a(lib_a-signal.o)
 .data          0x020e2100        0x0 C:\devkitPro\devkitARM\arm-eabi\lib\libc.a(lib_a-strcat.o)
 .data          0x020e2100        0x0 C:\devkitPro\devkitARM\arm-eabi\lib\libc.a(lib_a-strcmp.o)
 .data          0x020e2100        0x0 C:\devkitPro\devkitARM\arm-eabi\lib\libc.a(lib_a-strcpy.o)
 .data          0x020e2100        0x0 C:\devkitPro\devkitARM\arm-eabi\lib\libc.a(lib_a-strlen.o)
 .data          0x020e2100        0x0 C:\devkitPro\devkitARM\arm-eabi\lib\libc.a(lib_a-strncmp.o)
 .data          0x020e2100        0x0 C:\devkitPro\devkitARM\arm-eabi\lib\libc.a(lib_a-vfiprintf.o)
 .data          0x020e2100        0x0 C:\devkitPro\devkitARM\arm-eabi\lib\libc.a(lib_a-wbuf.o)
 .data          0x020e2100        0x0 C:\devkitPro\devkitARM\arm-eabi\lib\libc.a(lib_a-wcrtomb.o)
 .data          0x020e2100        0x0 C:\devkitPro\devkitARM\arm-eabi\lib\libc.a(lib_a-wcsrtombs.o)
 .data          0x020e2100        0x0 C:\devkitPro\devkitARM\arm-eabi\lib\libc.a(lib_a-wctomb_r.o)
 .data          0x020e2100        0x0 C:\devkitPro\devkitARM\arm-eabi\lib\libc.a(lib_a-wsetup.o)
 .data          0x020e2100        0x0 C:\devkitPro\devkitARM\arm-eabi\lib\libc.a(lib_a-fflush.o)
 .data          0x020e2100        0x0 C:\devkitPro\devkitARM\arm-eabi\lib\libc.a(lib_a-findfp.o)
 .data          0x020e2100        0x0 C:\devkitPro\devkitARM\arm-eabi\lib\libc.a(lib_a-freer.o)
 .data          0x020e2100        0x0 C:\devkitPro\devkitARM\arm-eabi\lib\libc.a(lib_a-fwalk.o)
 .data          0x020e2100       0x10 C:\devkitPro\devkitARM\arm-eabi\lib\libc.a(lib_a-locale.o)
                0x020e2100                __mb_cur_max
                0x020e2104                __lc_ctype
 .data          0x020e2110        0x0 C:\devkitPro\devkitARM\arm-eabi\lib\libc.a(lib_a-makebuf.o)
 .data          0x020e2110        0x0 C:\devkitPro\devkitARM\arm-eabi\lib\libc.a(lib_a-stdio.o)
 .data          0x020e2110        0x0 C:\devkitPro\devkitARM\arm-eabi\lib\libc.a(lib_a-fclose.o)
 .data          0x020e2110        0x0 C:\devkitPro\devkitARM\lib\gcc\arm-eabi\4.1.2\libgcc.a(_udivsi3.o)
 .data          0x020e2110        0x0 C:\devkitPro\devkitARM\arm-eabi\lib\libsysbase.a(close.o)
 .data          0x020e2110        0x0 C:\devkitPro\devkitARM\arm-eabi\lib\libsysbase.a(fstat.o)
 .data          0x020e2110        0x0 C:\devkitPro\devkitARM\arm-eabi\lib\libsysbase.a(getpid.o)
 .data          0x020e2110        0x0 C:\devkitPro\devkitARM\arm-eabi\lib\libsysbase.a(isatty.o)
 .data          0x020e2110        0x0 C:\devkitPro\devkitARM\arm-eabi\lib\libsysbase.a(kill.o)
 .data          0x020e2110        0x0 C:\devkitPro\devkitARM\arm-eabi\lib\libsysbase.a(lseek.o)
 .data          0x020e2110        0x0 C:\devkitPro\devkitARM\arm-eabi\lib\libsysbase.a(read.o)
 .data          0x020e2110        0x0 C:\devkitPro\devkitARM\arm-eabi\lib\libsysbase.a(sbrk.o)
 .data          0x020e2110        0x0 C:\devkitPro\devkitARM\arm-eabi\lib\libsysbase.a(times.o)
 .data          0x020e2110        0x0 C:\devkitPro\devkitARM\arm-eabi\lib\libsysbase.a(write.o)
 .data          0x020e2110        0x0 C:\devkitPro\devkitARM\arm-eabi\lib\libsysbase.a(_exit.o)
 .data          0x020e2110        0x0 C:\devkitPro\devkitARM\arm-eabi\lib\libsysbase.a(malloc_vars.o)
 .data          0x020e2110        0x0 C:\devkitPro\devkitARM\arm-eabi\lib\libsysbase.a(build_argv.o)
 .data          0x020e2110       0x44 C:\devkitPro\devkitARM\arm-eabi\lib\libsysbase.a(iosupport.o)
                0x020e2110                devoptab_list
 .data          0x020e2154        0x0 c:/devkitpro/devkitarm/bin/../lib/gcc/arm-eabi/4.1.2/crtend.o
 .data          0x020e2154        0x0 c:/devkitpro/devkitarm/bin/../lib/gcc/arm-eabi/4.1.2/crtn.o
 *(.data.*)
 *(.gnu.linkonce.d*)
                0x020e2154                . = ALIGN (0x4)
                0x020e2154                __data_end = <code 342> (.)
                0x020e2154                __dtcm_lma = .

.dtcm           0x0b000000        0x0 load address 0x020e2154
 *(.dtcm)
 *(.dtcm.*)
                0x0b000000                . = ALIGN (0x4)
                0x0b000000                __dtcm_end = <code 342> (.)
                0x020e2154                __itcm_lma = (__dtcm_lma + SIZEOF (.dtcm))

.itcm           0x01000000      0x190 load address 0x020e2154
 *(.itcm)
 .itcm          0x01000000       0xc8 C:\devkitPro\libnds\lib\libnds9.a(interrupts.o)
                0x01000000                irqTable
 .itcm          0x010000c8       0xc8 C:\devkitPro\libnds\lib\libnds9.a(interruptDispatcher.o)
                0x010000c8                IntrMain
 *itcm.*(.text)
                0x01000190                . = ALIGN (0x4)
                0x01000190                __itcm_end = <code 342> (.)

.sbss           0x0b000000        0x0
                0x0b000000                __sbss_start = <code 342> (.)
                0x0b000000                __sbss_start__ = <code 342> (.)
 *(.sbss)
                0x0b000000                . = ALIGN (0x4)
                0x0b000000                __sbss_end = <code 342> (.)
                0x020e22e4                __bss_lma = (__itcm_lma + SIZEOF (.itcm))
                0x020e22e4                __appended_data = (__itcm_lma + SIZEOF (.itcm))

.bss            0x020e22e4      0x888 load address 0x020e22e4
                0x020e22e4                __bss_start = <code 342> (.)
                0x020e22e4                __bss_start__ = <code 342> (.)
 *(.dynbss)
 *(.gnu.linkonce.b*)
 *(.bss*)
 .bss           0x020e22e4        0x0 c:/devkitpro/devkitarm/bin/../lib/gcc/arm-eabi/4.1.2/../../../../arm-eabi/lib/ds_arm9_crt0.o
 .bss           0x020e22e4        0x0 c:/devkitpro/devkitarm/bin/../lib/gcc/arm-eabi/4.1.2/crti.o
 .bss           0x020e22e4       0x1c c:/devkitpro/devkitarm/bin/../lib/gcc/arm-eabi/4.1.2/crtbegin.o
 .bss           0x020e2300        0x0 ./basicObject.o
 .bss           0x020e2300        0x0 ./cDraw.o
 .bss           0x020e2300        0x0 ./cMath.o
 .bss           0x020e2300        0x0 ./cScreenManager.o
 .bss           0x020e2300        0x0 ./main.o
 .bss           0x020e2300        0x0 ./menuButton.o
 .bss           0x020e2300        0x0 ./graphics/menu0.o
 .bss           0x020e2300        0x0 ./graphics/menu1.o
 .bss           0x020e2300        0x0 ./graphics/menu2.o
 .bss           0x020e2300        0x0 ./graphics/menu3.o
 .bss           0x020e2300        0x0 ./graphics/minimashers.o
 .bss           0x020e2300        0x0 ./graphics/splash.o
 .bss           0x020e2300        0x0 ./graphics/title.o
 .bss           0x020e2300        0x0 C:\devkitPro\libnds\lib\libnds9.a(initSystem.o)
 .bss           0x020e2300        0x0 C:\devkitPro\libnds\lib\libnds9.a(touch.o)
 .bss           0x020e2300        0x0 C:\devkitPro\libnds\lib\libnds9.a(video.o)
 .bss           0x020e2300        0x0 C:\devkitPro\libnds\lib\libnds9.a(interrupts.o)
 .bss           0x020e2300        0x0 C:\devkitPro\libnds\lib\libnds9.a(biosCalls.o)
 .bss           0x020e2300        0x0 C:\devkitPro\libnds\lib\libnds9.a(interruptDispatcher.o)
 .bss           0x020e2300        0x0 C:\devkitPro\devkitARM\arm-eabi\lib\libstdc++.a(del_op.o)
 .bss           0x020e2300        0x0 C:\devkitPro\devkitARM\arm-eabi\lib\libstdc++.a(eh_arm.o)
 .bss           0x020e2300        0x0 C:\devkitPro\devkitARM\arm-eabi\lib\libstdc++.a(eh_aux_runtime.o)
 .bss           0x020e2300        0xc C:\devkitPro\devkitARM\arm-eabi\lib\libstdc++.a(eh_globals.o)
 .bss           0x020e230c        0x0 C:\devkitPro\devkitARM\arm-eabi\lib\libstdc++.a(eh_personality.o)
 .bss           0x020e230c        0x0 C:\devkitPro\devkitARM\arm-eabi\lib\libstdc++.a(eh_terminate.o)
 .bss           0x020e230c        0x0 C:\devkitPro\devkitARM\arm-eabi\lib\libstdc++.a(eh_term_handler.o)
 .bss           0x020e230c        0x0 C:\devkitPro\devkitARM\arm-eabi\lib\libstdc++.a(eh_throw.o)
 .bss           0x020e230c        0x0 C:\devkitPro\devkitARM\arm-eabi\lib\libstdc++.a(eh_unex_handler.o)
 .bss           0x020e230c        0x0 C:\devkitPro\devkitARM\arm-eabi\lib\libstdc++.a(new_op.o)
 .bss           0x020e230c        0x0 C:\devkitPro\devkitARM\arm-eabi\lib\libstdc++.a(tinfo.o)
 .bss           0x020e230c        0x0 C:\devkitPro\devkitARM\arm-eabi\lib\libstdc++.a(tinfo2.o)
 .bss           0x020e230c        0x1 C:\devkitPro\devkitARM\arm-eabi\lib\libstdc++.a(vterminate.o)
 .bss           0x020e230d        0x0 C:\devkitPro\devkitARM\arm-eabi\lib\libstdc++.a(cp-demangle.o)
 *fill*         0x020e230d        0x3 00
 .bss           0x020e2310      0x808 C:\devkitPro\devkitARM\arm-eabi\lib\libstdc++.a(eh_alloc.o)
 .bss           0x020e2b18        0x0 C:\devkitPro\devkitARM\arm-eabi\lib\libstdc++.a(eh_call.o)
 .bss           0x020e2b18        0x0 C:\devkitPro\devkitARM\arm-eabi\lib\libstdc++.a(eh_catch.o)
 .bss           0x020e2b18        0x0 C:\devkitPro\devkitARM\arm-eabi\lib\libstdc++.a(eh_exception.o)
 .bss           0x020e2b18        0x0 C:\devkitPro\devkitARM\arm-eabi\lib\libstdc++.a(eh_type.o)
 .bss           0x020e2b18        0x4 C:\devkitPro\devkitARM\arm-eabi\lib\libstdc++.a(new_handler.o)
                0x020e2b18                __new_handler
 .bss           0x020e2b1c        0x0 C:\devkitPro\devkitARM\arm-eabi\lib\libm.a(lib_a-s_round.o)
 .bss           0x020e2b1c        0x0 C:\devkitPro\devkitARM\arm-eabi\lib\libm.a(lib_a-w_sqrt.o)
 .bss           0x020e2b1c        0x0 C:\devkitPro\devkitARM\arm-eabi\lib\libm.a(lib_a-e_sqrt.o)
 .bss           0x020e2b1c        0x0 C:\devkitPro\devkitARM\arm-eabi\lib\libm.a(lib_a-s_isnand.o)
 .bss           0x020e2b1c        0x0 C:\devkitPro\devkitARM\arm-eabi\lib\libm.a(lib_a-s_lib_ver.o)
 .bss           0x020e2b1c        0x0 C:\devkitPro\devkitARM\arm-eabi\lib\libm.a(lib_a-s_matherr.o)
 .bss           0x020e2b1c        0x0 C:\devkitPro\devkitARM\lib\gcc\arm-eabi\4.1.2\libgcc.a(_divsi3.o)
 .bss           0x020e2b1c        0x0 C:\devkitPro\devkitARM\lib\gcc\arm-eabi\4.1.2\libgcc.a(_dvmd_tls.o)
 .bss           0x020e2b1c        0x0 C:\devkitPro\devkitARM\lib\gcc\arm-eabi\4.1.2\libgcc.a(_addsubdf3.o)
 .bss           0x020e2b1c        0x0 C:\devkitPro\devkitARM\lib\gcc\arm-eabi\4.1.2\libgcc.a(_muldivdf3.o)
 .bss           0x020e2b1c        0x0 C:\devkitPro\devkitARM\lib\gcc\arm-eabi\4.1.2\libgcc.a(_cmpdf2.o)
 .bss           0x020e2b1c        0x0 C:\devkitPro\devkitARM\lib\gcc\arm-eabi\4.1.2\libgcc.a(_fixdfsi.o)
 .bss           0x020e2b1c        0x0 C:\devkitPro\devkitARM\lib\gcc\arm-eabi\4.1.2\libgcc.a(unwind-arm.o)
 .bss           0x020e2b1c        0x0 C:\devkitPro\devkitARM\lib\gcc\arm-eabi\4.1.2\libgcc.a(libunwind.o)
 .bss           0x020e2b1c        0x0 C:\devkitPro\devkitARM\lib\gcc\arm-eabi\4.1.2\libgcc.a(pr-support.o)
 .bss           0x020e2b1c        0x0 C:\devkitPro\devkitARM\arm-eabi\lib\libc.a(lib_a-abort.o)
 .bss           0x020e2b1c        0x0 C:\devkitPro\devkitARM\arm-eabi\lib\libc.a(lib_a-assert.o)
 .bss           0x020e2b1c        0x0 C:\devkitPro\devkitARM\arm-eabi\lib\libc.a(lib_a-errno.o)
 .bss           0x020e2b1c        0x0 C:\devkitPro\devkitARM\arm-eabi\lib\libc.a(lib_a-fiprintf.o)
 .bss           0x020e2b1c        0x0 C:\devkitPro\devkitARM\arm-eabi\lib\libc.a(lib_a-fputc.o)
 .bss           0x020e2b1c        0x0 C:\devkitPro\devkitARM\arm-eabi\lib\libc.a(lib_a-fputs.o)
 .bss           0x020e2b1c        0x0 C:\devkitPro\devkitARM\arm-eabi\lib\libc.a(lib_a-fvwrite.o)
 .bss           0x020e2b1c        0x0 C:\devkitPro\devkitARM\arm-eabi\lib\libc.a(lib_a-fwrite.o)
 .bss           0x020e2b1c        0x0 C:\devkitPro\devkitARM\arm-eabi\lib\libc.a(lib_a-impure.o)
 .bss           0x020e2b1c        0x0 C:\devkitPro\devkitARM\arm-eabi\lib\libc.a(lib_a-init.o)
 .bss           0x020e2b1c        0x0 C:\devkitPro\devkitARM\arm-eabi\lib\libc.a(lib_a-malloc.o)
 .bss           0x020e2b1c       0x34 C:\devkitPro\devkitARM\arm-eabi\lib\libc.a(lib_a-mallocr.o)
                0x020e2b1c                __malloc_top_pad
                0x020e2b20                __malloc_max_sbrked_mem
                0x020e2b28                __malloc_current_mallinfo
                0x020e2b24                __malloc_max_total_mem
 .bss           0x020e2b50        0x0 C:\devkitPro\devkitARM\arm-eabi\lib\libc.a(lib_a-memchr.o)
 .bss           0x020e2b50        0x0 C:\devkitPro\devkitARM\arm-eabi\lib\libc.a(lib_a-memcmp.o)
 .bss           0x020e2b50        0x0 C:\devkitPro\devkitARM\arm-eabi\lib\libc.a(lib_a-memcpy.o)
 .bss           0x020e2b50        0x0 C:\devkitPro\devkitARM\arm-eabi\lib\libc.a(lib_a-memmove.o)
 .bss           0x020e2b50        0x0 C:\devkitPro\devkitARM\arm-eabi\lib\libc.a(lib_a-memset.o)
 .bss           0x020e2b50        0x0 C:\devkitPro\devkitARM\arm-eabi\lib\libc.a(lib_a-mlock.o)
 .bss           0x020e2b50        0x0 C:\devkitPro\devkitARM\arm-eabi\lib\libc.a(lib_a-putc.o)
 .bss           0x020e2b50        0x0 C:\devkitPro\devkitARM\arm-eabi\lib\libc.a(lib_a-realloc.o)
 .bss           0x020e2b50        0x0 C:\devkitPro\devkitARM\arm-eabi\lib\libc.a(lib_a-reallocr.o)
 .bss           0x020e2b50        0x0 C:\devkitPro\devkitARM\arm-eabi\lib\libc.a(lib_a-signal.o)
 .bss           0x020e2b50        0x0 C:\devkitPro\devkitARM\arm-eabi\lib\libc.a(lib_a-strcat.o)
 .bss           0x020e2b50        0x0 C:\devkitPro\devkitARM\arm-eabi\lib\libc.a(lib_a-strcmp.o)
 .bss           0x020e2b50        0x0 C:\devkitPro\devkitARM\arm-eabi\lib\libc.a(lib_a-strcpy.o)
 .bss           0x020e2b50        0x0 C:\devkitPro\devkitARM\arm-eabi\lib\libc.a(lib_a-strlen.o)
 .bss           0x020e2b50        0x0 C:\devkitPro\devkitARM\arm-eabi\lib\libc.a(lib_a-strncmp.o)
 .bss           0x020e2b50        0x0 C:\devkitPro\devkitARM\arm-eabi\lib\libc.a(lib_a-vfiprintf.o)
 .bss           0x020e2b50        0x0 C:\devkitPro\devkitARM\arm-eabi\lib\libc.a(lib_a-wbuf.o)
 .bss           0x020e2b50        0x0 C:\devkitPro\devkitARM\arm-eabi\lib\libc.a(lib_a-wcrtomb.o)
 .bss           0x020e2b50        0x0 C:\devkitPro\devkitARM\arm-eabi\lib\libc.a(lib_a-wcsrtombs.o)
 .bss           0x020e2b50        0x0 C:\devkitPro\devkitARM\arm-eabi\lib\libc.a(lib_a-wctomb_r.o)
 .bss           0x020e2b50        0x0 C:\devkitPro\devkitARM\arm-eabi\lib\libc.a(lib_a-wsetup.o)
 .bss           0x020e2b50        0x0 C:\devkitPro\devkitARM\arm-eabi\lib\libc.a(lib_a-fflush.o)
 .bss           0x020e2b50        0x0 C:\devkitPro\devkitARM\arm-eabi\lib\libc.a(lib_a-findfp.o)
 .bss           0x020e2b50        0x0 C:\devkitPro\devkitARM\arm-eabi\lib\libc.a(lib_a-freer.o)
 .bss           0x020e2b50        0x0 C:\devkitPro\devkitARM\arm-eabi\lib\libc.a(lib_a-fwalk.o)
 .bss           0x020e2b50        0xc C:\devkitPro\devkitARM\arm-eabi\lib\libc.a(lib_a-locale.o)
                0x020e2b50                __nlocale_changed
                0x020e2b54                __mlocale_changed
                0x020e2b58                _PathLocale
 .bss           0x020e2b5c        0x0 C:\devkitPro\devkitARM\arm-eabi\lib\libc.a(lib_a-makebuf.o)
 .bss           0x020e2b5c        0x0 C:\devkitPro\devkitARM\arm-eabi\lib\libc.a(lib_a-stdio.o)
 .bss           0x020e2b5c        0x0 C:\devkitPro\devkitARM\arm-eabi\lib\libc.a(lib_a-fclose.o)
 .bss           0x020e2b5c        0x0 C:\devkitPro\devkitARM\lib\gcc\arm-eabi\4.1.2\libgcc.a(_udivsi3.o)
 .bss           0x020e2b5c        0x0 C:\devkitPro\devkitARM\arm-eabi\lib\libsysbase.a(close.o)
 .bss           0x020e2b5c        0x0 C:\devkitPro\devkitARM\arm-eabi\lib\libsysbase.a(fstat.o)
 .bss           0x020e2b5c        0x0 C:\devkitPro\devkitARM\arm-eabi\lib\libsysbase.a(getpid.o)
 .bss           0x020e2b5c        0x0 C:\devkitPro\devkitARM\arm-eabi\lib\libsysbase.a(isatty.o)
 .bss           0x020e2b5c        0x0 C:\devkitPro\devkitARM\arm-eabi\lib\libsysbase.a(kill.o)
 .bss           0x020e2b5c        0x0 C:\devkitPro\devkitARM\arm-eabi\lib\libsysbase.a(lseek.o)
 .bss           0x020e2b5c        0x0 C:\devkitPro\devkitARM\arm-eabi\lib\libsysbase.a(read.o)
 .bss           0x020e2b5c        0x4 C:\devkitPro\devkitARM\arm-eabi\lib\libsysbase.a(sbrk.o)
 .bss           0x020e2b60        0x0 C:\devkitPro\devkitARM\arm-eabi\lib\libsysbase.a(times.o)
 .bss           0x020e2b60        0x0 C:\devkitPro\devkitARM\arm-eabi\lib\libsysbase.a(write.o)
 .bss           0x020e2b60        0x0 C:\devkitPro\devkitARM\arm-eabi\lib\libsysbase.a(_exit.o)
 .bss           0x020e2b60        0x8 C:\devkitPro\devkitARM\arm-eabi\lib\libsysbase.a(malloc_vars.o)
                0x020e2b64                fake_heap_start
                0x020e2b60                fake_heap_end
 .bss           0x020e2b68        0x0 C:\devkitPro\devkitARM\arm-eabi\lib\libsysbase.a(build_argv.o)
 .bss           0x020e2b68        0x0 C:\devkitPro\devkitARM\arm-eabi\lib\libsysbase.a(iosupport.o)
 .bss           0x020e2b68        0x0 c:/devkitpro/devkitarm/bin/../lib/gcc/arm-eabi/4.1.2/crtend.o
 .bss           0x020e2b68        0x0 c:/devkitpro/devkitarm/bin/../lib/gcc/arm-eabi/4.1.2/crtn.o
 *(COMMON)
 COMMON         0x020e2b68        0x4 C:\devkitPro\devkitARM\arm-eabi\lib\libsysbase.a(times.o)
                0x020e2b68                punixTime
                0x020e2b6c                . = ALIGN (0x4)
                0x020e2b6c                __bss_end = <code 342> (.)
                0x020e2b6c                __bss_end__ = __bss_end
                0x020e2b6c                _end = .
                0x020e2b6c                __end__ = .
                0x020e2b6c                PROVIDE (end, _end)

.stab
 *(.stab)

.stabstr
 *(.stabstr)

.stab.excl
 *(.stab.excl)

.stab.exclstr
 *(.stab.exclstr)

.stab.index
 *(.stab.index)

.stab.indexstr
 *(.stab.indexstr)

.comment        0x00000000     0x1056
 *(.comment)
 .comment       0x00000000       0x29 c:/devkitpro/devkitarm/bin/../lib/gcc/arm-eabi/4.1.2/crtbegin.o
 .comment       0x00000029       0x29 ./basicObject.o
 .comment       0x00000052       0x29 ./cDraw.o
 .comment       0x0000007b       0x29 ./cMath.o
 .comment       0x000000a4       0x29 ./cScreenManager.o
 .comment       0x000000cd       0x29 ./main.o
 .comment       0x000000f6       0x29 ./menuButton.o
 .comment       0x0000011f       0x29 ./graphics/menu0.o
 .comment       0x00000148       0x29 ./graphics/menu1.o
 .comment       0x00000171       0x29 ./graphics/menu2.o
 .comment       0x0000019a       0x29 ./graphics/menu3.o
 .comment       0x000001c3       0x29 ./graphics/minimashers.o
 .comment       0x000001ec       0x29 ./graphics/splash.o
 .comment       0x00000215       0x29 ./graphics/title.o
 .comment       0x0000023e       0x29 C:\devkitPro\libnds\lib\libnds9.a(initSystem.o)
 .comment       0x00000267       0x29 C:\devkitPro\libnds\lib\libnds9.a(touch.o)
 .comment       0x00000290       0x29 C:\devkitPro\libnds\lib\libnds9.a(video.o)
 .comment       0x000002b9       0x29 C:\devkitPro\libnds\lib\libnds9.a(interrupts.o)
 .comment       0x000002e2       0x29 C:\devkitPro\devkitARM\arm-eabi\lib\libstdc++.a(del_op.o)
 .comment       0x0000030b       0x29 C:\devkitPro\devkitARM\arm-eabi\lib\libstdc++.a(eh_arm.o)
 .comment       0x00000334       0x29 C:\devkitPro\devkitARM\arm-eabi\lib\libstdc++.a(eh_aux_runtime.o)
 .comment       0x0000035d       0x29 C:\devkitPro\devkitARM\arm-eabi\lib\libstdc++.a(eh_globals.o)
 .comment       0x00000386       0x29 C:\devkitPro\devkitARM\arm-eabi\lib\libstdc++.a(eh_personality.o)
 .comment       0x000003af       0x29 C:\devkitPro\devkitARM\arm-eabi\lib\libstdc++.a(eh_terminate.o)
 .comment       0x000003d8       0x29 C:\devkitPro\devkitARM\arm-eabi\lib\libstdc++.a(eh_term_handler.o)
 .comment       0x00000401       0x29 C:\devkitPro\devkitARM\arm-eabi\lib\libstdc++.a(eh_throw.o)
 .comment       0x0000042a       0x29 C:\devkitPro\devkitARM\arm-eabi\lib\libstdc++.a(eh_unex_handler.o)
 .comment       0x00000453       0x29 C:\devkitPro\devkitARM\arm-eabi\lib\libstdc++.a(new_op.o)
 .comment       0x0000047c       0x29 C:\devkitPro\devkitARM\arm-eabi\lib\libstdc++.a(tinfo.o)
 .comment       0x000004a5       0x29 C:\devkitPro\devkitARM\arm-eabi\lib\libstdc++.a(tinfo2.o)
 .comment       0x000004ce       0x29 C:\devkitPro\devkitARM\arm-eabi\lib\libstdc++.a(vterminate.o)
 .comment       0x000004f7       0x29 C:\devkitPro\devkitARM\arm-eabi\lib\libstdc++.a(cp-demangle.o)
 .comment       0x00000520       0x29 C:\devkitPro\devkitARM\arm-eabi\lib\libstdc++.a(eh_alloc.o)
 .comment       0x00000549       0x29 C:\devkitPro\devkitARM\arm-eabi\lib\libstdc++.a(eh_call.o)
 .comment       0x00000572       0x29 C:\devkitPro\devkitARM\arm-eabi\lib\libstdc++.a(eh_catch.o)
 .comment       0x0000059b       0x29 C:\devkitPro\devkitARM\arm-eabi\lib\libstdc++.a(eh_exception.o)
 .comment       0x000005c4       0x29 C:\devkitPro\devkitARM\arm-eabi\lib\libstdc++.a(eh_type.o)
 .comment       0x000005ed       0x29 C:\devkitPro\devkitARM\arm-eabi\lib\libstdc++.a(new_handler.o)
 .comment       0x00000616       0x29 C:\devkitPro\devkitARM\arm-eabi\lib\libm.a(lib_a-s_round.o)
 .comment       0x0000063f       0x29 C:\devkitPro\devkitARM\arm-eabi\lib\libm.a(lib_a-w_sqrt.o)
 .comment       0x00000668       0x29 C:\devkitPro\devkitARM\arm-eabi\lib\libm.a(lib_a-e_sqrt.o)
 .comment       0x00000691       0x29 C:\devkitPro\devkitARM\arm-eabi\lib\libm.a(lib_a-s_isnand.o)
 .comment       0x000006ba       0x29 C:\devkitPro\devkitARM\arm-eabi\lib\libm.a(lib_a-s_lib_ver.o)
 .comment       0x000006e3       0x29 C:\devkitPro\devkitARM\arm-eabi\lib\libm.a(lib_a-s_matherr.o)
 .comment       0x0000070c       0x29 C:\devkitPro\devkitARM\lib\gcc\arm-eabi\4.1.2\libgcc.a(unwind-arm.o)
 .comment       0x00000735       0x29 C:\devkitPro\devkitARM\lib\gcc\arm-eabi\4.1.2\libgcc.a(pr-support.o)
 .comment       0x0000075e       0x29 C:\devkitPro\devkitARM\arm-eabi\lib\libc.a(lib_a-abort.o)
 .comment       0x00000787       0x29 C:\devkitPro\devkitARM\arm-eabi\lib\libc.a(lib_a-assert.o)
 .comment       0x000007b0       0x29 C:\devkitPro\devkitARM\arm-eabi\lib\libc.a(lib_a-errno.o)
 .comment       0x000007d9       0x29 C:\devkitPro\devkitARM\arm-eabi\lib\libc.a(lib_a-fiprintf.o)
 .comment       0x00000802       0x29 C:\devkitPro\devkitARM\arm-eabi\lib\libc.a(lib_a-fputc.o)
 .comment       0x0000082b       0x29 C:\devkitPro\devkitARM\arm-eabi\lib\libc.a(lib_a-fputs.o)
 .comment       0x00000854       0x29 C:\devkitPro\devkitARM\arm-eabi\lib\libc.a(lib_a-fvwrite.o)
 .comment       0x0000087d       0x29 C:\devkitPro\devkitARM\arm-eabi\lib\libc.a(lib_a-fwrite.o)
 .comment       0x000008a6       0x29 C:\devkitPro\devkitARM\arm-eabi\lib\libc.a(lib_a-impure.o)
 .comment       0x000008cf       0x29 C:\devkitPro\devkitARM\arm-eabi\lib\libc.a(lib_a-init.o)
 .comment       0x000008f8       0x29 C:\devkitPro\devkitARM\arm-eabi\lib\libc.a(lib_a-malloc.o)
 .comment       0x00000921       0x29 C:\devkitPro\devkitARM\arm-eabi\lib\libc.a(lib_a-mallocr.o)
 .comment       0x0000094a       0x29 C:\devkitPro\devkitARM\arm-eabi\lib\libc.a(lib_a-memchr.o)
 .comment       0x00000973       0x29 C:\devkitPro\devkitARM\arm-eabi\lib\libc.a(lib_a-memcmp.o)
 .comment       0x0000099c       0x29 C:\devkitPro\devkitARM\arm-eabi\lib\libc.a(lib_a-memcpy.o)
 .comment       0x000009c5       0x29 C:\devkitPro\devkitARM\arm-eabi\lib\libc.a(lib_a-memmove.o)
 .comment       0x000009ee       0x29 C:\devkitPro\devkitARM\arm-eabi\lib\libc.a(lib_a-memset.o)
 .comment       0x00000a17       0x29 C:\devkitPro\devkitARM\arm-eabi\lib\libc.a(lib_a-mlock.o)
 .comment       0x00000a40       0x29 C:\devkitPro\devkitARM\arm-eabi\lib\libc.a(lib_a-putc.o)
 .comment       0x00000a69       0x29 C:\devkitPro\devkitARM\arm-eabi\lib\libc.a(lib_a-realloc.o)
 .comment       0x00000a92       0x29 C:\devkitPro\devkitARM\arm-eabi\lib\libc.a(lib_a-reallocr.o)
 .comment       0x00000abb       0x29 C:\devkitPro\devkitARM\arm-eabi\lib\libc.a(lib_a-signal.o)
 .comment       0x00000ae4       0x29 C:\devkitPro\devkitARM\arm-eabi\lib\libc.a(lib_a-strcat.o)
 .comment       0x00000b0d       0x29 C:\devkitPro\devkitARM\arm-eabi\lib\libc.a(lib_a-strcmp.o)
 .comment       0x00000b36       0x29 C:\devkitPro\devkitARM\arm-eabi\lib\libc.a(lib_a-strcpy.o)
 .comment       0x00000b5f       0x29 C:\devkitPro\devkitARM\arm-eabi\lib\libc.a(lib_a-strlen.o)
 .comment       0x00000b88       0x29 C:\devkitPro\devkitARM\arm-eabi\lib\libc.a(lib_a-strncmp.o)
 .comment       0x00000bb1       0x29 C:\devkitPro\devkitARM\arm-eabi\lib\libc.a(lib_a-vfiprintf.o)
 .comment       0x00000bda       0x29 C:\devkitPro\devkitARM\arm-eabi\lib\libc.a(lib_a-wbuf.o)
 .comment       0x00000c03       0x29 C:\devkitPro\devkitARM\arm-eabi\lib\libc.a(lib_a-wcrtomb.o)
 .comment       0x00000c2c       0x29 C:\devkitPro\devkitARM\arm-eabi\lib\libc.a(lib_a-wcsrtombs.o)
 .comment       0x00000c55       0x29 C:\devkitPro\devkitARM\arm-eabi\lib\libc.a(lib_a-wctomb_r.o)
 .comment       0x00000c7e       0x29 C:\devkitPro\devkitARM\arm-eabi\lib\libc.a(lib_a-wsetup.o)
 .comment       0x00000ca7       0x29 C:\devkitPro\devkitARM\arm-eabi\lib\libc.a(lib_a-fflush.o)
 .comment       0x00000cd0       0x29 C:\devkitPro\devkitARM\arm-eabi\lib\libc.a(lib_a-findfp.o)
 .comment       0x00000cf9       0x29 C:\devkitPro\devkitARM\arm-eabi\lib\libc.a(lib_a-freer.o)
 .comment       0x00000d22       0x29 C:\devkitPro\devkitARM\arm-eabi\lib\libc.a(lib_a-fwalk.o)
 .comment       0x00000d4b       0x29 C:\devkitPro\devkitARM\arm-eabi\lib\libc.a(lib_a-locale.o)
 .comment       0x00000d74       0x29 C:\devkitPro\devkitARM\arm-eabi\lib\libc.a(lib_a-makebuf.o)
 .comment       0x00000d9d       0x29 C:\devkitPro\devkitARM\arm-eabi\lib\libc.a(lib_a-stdio.o)
 .comment       0x00000dc6       0x29 C:\devkitPro\devkitARM\arm-eabi\lib\libc.a(lib_a-fclose.o)
 .comment       0x00000def       0x29 C:\devkitPro\devkitARM\arm-eabi\lib\libsysbase.a(close.o)
 .comment       0x00000e18       0x29 C:\devkitPro\devkitARM\arm-eabi\lib\libsysbase.a(fstat.o)
 .comment       0x00000e41       0x29 C:\devkitPro\devkitARM\arm-eabi\lib\libsysbase.a(getpid.o)
 .comment       0x00000e6a       0x29 C:\devkitPro\devkitARM\arm-eabi\lib\libsysbase.a(isatty.o)
 .comment       0x00000e93       0x29 C:\devkitPro\devkitARM\arm-eabi\lib\libsysbase.a(kill.o)
 .comment       0x00000ebc       0x29 C:\devkitPro\devkitARM\arm-eabi\lib\libsysbase.a(lseek.o)
 .comment       0x00000ee5       0x29 C:\devkitPro\devkitARM\arm-eabi\lib\libsysbase.a(read.o)
 .comment       0x00000f0e       0x29 C:\devkitPro\devkitARM\arm-eabi\lib\libsysbase.a(sbrk.o)
 .comment       0x00000f37       0x29 C:\devkitPro\devkitARM\arm-eabi\lib\libsysbase.a(times.o)
 .comment       0x00000f60       0x29 C:\devkitPro\devkitARM\arm-eabi\lib\libsysbase.a(write.o)
 .comment       0x00000f89       0x29 C:\devkitPro\devkitARM\arm-eabi\lib\libsysbase.a(_exit.o)
 .comment       0x00000fb2       0x29 C:\devkitPro\devkitARM\arm-eabi\lib\libsysbase.a(malloc_vars.o)
 .comment       0x00000fdb       0x29 C:\devkitPro\devkitARM\arm-eabi\lib\libsysbase.a(build_argv.o)
 .comment       0x00001004       0x29 C:\devkitPro\devkitARM\arm-eabi\lib\libsysbase.a(iosupport.o)
 .comment       0x0000102d       0x29 c:/devkitpro/devkitarm/bin/../lib/gcc/arm-eabi/4.1.2/crtend.o

.debug
 *(.debug)

.line
 *(.line)

.debug_srcinfo
 *(.debug_srcinfo)

.debug_sfnames
 *(.debug_sfnames)

.debug_aranges  0x00000000      0x140
 *(.debug_aranges)
 .debug_aranges
                0x00000000       0x20 ./basicObject.o
 .debug_aranges
                0x00000020       0x20 ./cDraw.o
 .debug_aranges
                0x00000040       0x20 ./cMath.o
 .debug_aranges
                0x00000060       0x20 ./cScreenManager.o
 .debug_aranges
                0x00000080       0x40 ./main.o
 .debug_aranges
                0x000000c0       0x20 C:\devkitPro\libnds\lib\libnds9.a(initSystem.o)
 .debug_aranges
                0x000000e0       0x20 C:\devkitPro\libnds\lib\libnds9.a(touch.o)
 .debug_aranges
                0x00000100       0x20 C:\devkitPro\libnds\lib\libnds9.a(video.o)
 .debug_aranges
                0x00000120       0x20 C:\devkitPro\libnds\lib\libnds9.a(interrupts.o)

.debug_pubnames
                0x00000000      0x4da
 *(.debug_pubnames)
 .debug_pubnames
                0x00000000       0x83 ./basicObject.o
 .debug_pubnames
                0x00000083       0x6a ./cDraw.o
 .debug_pubnames
                0x000000ed       0x1a ./cMath.o
 .debug_pubnames
                0x00000107       0x7a ./cScreenManager.o
 .debug_pubnames
                0x00000181       0xb0 ./main.o
 .debug_pubnames
                0x00000231       0x22 ./graphics/menu0.o
 .debug_pubnames
                0x00000253       0x22 ./graphics/menu1.o
 .debug_pubnames
                0x00000275       0x22 ./graphics/menu2.o
 .debug_pubnames
                0x00000297       0x22 ./graphics/menu3.o
 .debug_pubnames
                0x000002b9       0x28 ./graphics/minimashers.o
 .debug_pubnames
                0x000002e1       0x23 ./graphics/splash.o
 .debug_pubnames
                0x00000304       0x22 ./graphics/title.o
 .debug_pubnames
                0x00000326       0x21 C:\devkitPro\libnds\lib\libnds9.a(initSystem.o)
 .debug_pubnames
                0x00000347       0x22 C:\devkitPro\libnds\lib\libnds9.a(touch.o)
 .debug_pubnames
                0x00000369       0xf1 C:\devkitPro\libnds\lib\libnds9.a(video.o)
 .debug_pubnames
                0x0000045a       0x80 C:\devkitPro\libnds\lib\libnds9.a(interrupts.o)

.debug_info     0x00000000     0x2fdb
 *(.debug_info)
 .debug_info    0x00000000      0x37c ./basicObject.o
 .debug_info    0x0000037c      0x8e4 ./cDraw.o
 .debug_info    0x00000c60       0x7f ./cMath.o
 .debug_info    0x00000cdf      0x462 ./cScreenManager.o
 .debug_info    0x00001141      0xa2a ./main.o
 .debug_info    0x00001b6b       0x81 ./menuButton.o
 .debug_info    0x00001bec       0x5c ./graphics/menu0.o
 .debug_info    0x00001c48       0x5c ./graphics/menu1.o
 .debug_info    0x00001ca4       0x5c ./graphics/menu2.o
 .debug_info    0x00001d00       0x5c ./graphics/menu3.o
 .debug_info    0x00001d5c       0x5c ./graphics/minimashers.o
 .debug_info    0x00001db8       0x5c ./graphics/splash.o
 .debug_info    0x00001e14       0x5c ./graphics/title.o
 .debug_info    0x00001e70      0x54e C:\devkitPro\libnds\lib\libnds9.a(initSystem.o)
 .debug_info    0x000023be      0x459 C:\devkitPro\libnds\lib\libnds9.a(touch.o)
 .debug_info    0x00002817      0x579 C:\devkitPro\libnds\lib\libnds9.a(video.o)
 .debug_info    0x00002d90      0x24b C:\devkitPro\libnds\lib\libnds9.a(interrupts.o)

.debug_abbrev   0x00000000     0x10cf
 *(.debug_abbrev)
 .debug_abbrev  0x00000000      0x1a0 ./basicObject.o
 .debug_abbrev  0x000001a0      0x28c ./cDraw.o
 .debug_abbrev  0x0000042c       0x60 ./cMath.o
 .debug_abbrev  0x0000048c      0x22d ./cScreenManager.o
 .debug_abbrev  0x000006b9      0x348 ./main.o
 .debug_abbrev  0x00000a01       0x2a ./menuButton.o
 .debug_abbrev  0x00000a2b       0x49 ./graphics/menu0.o
 .debug_abbrev  0x00000a74       0x49 ./graphics/menu1.o
 .debug_abbrev  0x00000abd       0x49 ./graphics/menu2.o
 .debug_abbrev  0x00000b06       0x49 ./graphics/menu3.o
 .debug_abbrev  0x00000b4f       0x49 ./graphics/minimashers.o
 .debug_abbrev  0x00000b98       0x49 ./graphics/splash.o
 .debug_abbrev  0x00000be1       0x49 ./graphics/title.o
 .debug_abbrev  0x00000c2a      0x1a5 C:\devkitPro\libnds\lib\libnds9.a(initSystem.o)
 .debug_abbrev  0x00000dcf      0x10c C:\devkitPro\libnds\lib\libnds9.a(touch.o)
 .debug_abbrev  0x00000edb       0xbf C:\devkitPro\libnds\lib\libnds9.a(video.o)
 .debug_abbrev  0x00000f9a      0x135 C:\devkitPro\libnds\lib\libnds9.a(interrupts.o)

.debug_line     0x00000000      0xf53
 *(.debug_line)
 .debug_line    0x00000000       0xf0 ./basicObject.o
 .debug_line    0x000000f0      0x25d ./cDraw.o
 .debug_line    0x0000034d       0x40 ./cMath.o
 .debug_line    0x0000038d      0x1b5 ./cScreenManager.o
 .debug_line    0x00000542      0x2b8 ./main.o
 .debug_line    0x000007fa       0x1d ./menuButton.o
 .debug_line    0x00000817       0x34 ./graphics/menu0.o
 .debug_line    0x0000084b       0x34 ./graphics/menu1.o
 .debug_line    0x0000087f       0x34 ./graphics/menu2.o
 .debug_line    0x000008b3       0x34 ./graphics/menu3.o
 .debug_line    0x000008e7       0x3a ./graphics/minimashers.o
 .debug_line    0x00000921       0x35 ./graphics/splash.o
 .debug_line    0x00000956       0x34 ./graphics/title.o
 .debug_line    0x0000098a      0x20b C:\devkitPro\libnds\lib\libnds9.a(initSystem.o)
 .debug_line    0x00000b95      0x103 C:\devkitPro\libnds\lib\libnds9.a(touch.o)
 .debug_line    0x00000c98      0x15e C:\devkitPro\libnds\lib\libnds9.a(video.o)
 .debug_line    0x00000df6      0x15d C:\devkitPro\libnds\lib\libnds9.a(interrupts.o)

.debug_frame    0x00000000      0x45c
 *(.debug_frame)
 .debug_frame   0x00000000       0x60 ./basicObject.o
 .debug_frame   0x00000060       0xec ./cDraw.o
 .debug_frame   0x0000014c       0x2c ./cMath.o
 .debug_frame   0x00000178       0x54 ./cScreenManager.o
 .debug_frame   0x000001cc       0xb4 ./main.o
 .debug_frame   0x00000280       0x28 C:\devkitPro\libnds\lib\libnds9.a(initSystem.o)
 .debug_frame   0x000002a8       0x28 C:\devkitPro\libnds\lib\libnds9.a(touch.o)
 .debug_frame   0x000002d0       0xdc C:\devkitPro\libnds\lib\libnds9.a(video.o)
 .debug_frame   0x000003ac       0xb0 C:\devkitPro\libnds\lib\libnds9.a(interrupts.o)

.debug_str      0x00000000     0x1493
 *(.debug_str)
 .debug_str     0x00000000      0x1ec ./basicObject.o
                                0x241 (size before relaxing)
 .debug_str     0x000001ec      0x385 ./cDraw.o
                                0x49a (size before relaxing)
 .debug_str     0x00000571       0x16 ./cMath.o
                                 0x7d (size before relaxing)
 .debug_str     0x00000587      0x101 ./cScreenManager.o
                                0x2e0 (size before relaxing)
 .debug_str     0x00000688      0x10a ./main.o
                                0x4d2 (size before relaxing)
 .debug_str     0x00000792       0x12 ./menuButton.o
                                0x10f (size before relaxing)
 .debug_str     0x000007a4       0x37 ./graphics/menu0.o
                                 0xa5 (size before relaxing)
 .debug_str     0x000007db       0x14 ./graphics/menu1.o
                                 0xa5 (size before relaxing)
 .debug_str     0x000007ef       0x14 ./graphics/menu2.o
                                 0xa5 (size before relaxing)
 .debug_str     0x00000803       0x14 ./graphics/menu3.o
                                 0xa5 (size before relaxing)
 .debug_str     0x00000817       0x2c ./graphics/minimashers.o
                                 0xb1 (size before relaxing)
 .debug_str     0x00000843       0x15 ./graphics/splash.o
                                 0xa7 (size before relaxing)
 .debug_str     0x00000858       0x14 ./graphics/title.o
                                 0xa5 (size before relaxing)
 .debug_str     0x0000086c      0x1ec C:\devkitPro\libnds\lib\libnds9.a(initSystem.o)
                                0x2f6 (size before relaxing)
 .debug_str     0x00000a58       0x46 C:\devkitPro\libnds\lib\libnds9.a(touch.o)
                                0x2c1 (size before relaxing)
 .debug_str     0x00000a9e      0x932 C:\devkitPro\libnds\lib\libnds9.a(video.o)
                                0xa1e (size before relaxing)
 .debug_str     0x000013d0       0xc3 C:\devkitPro\libnds\lib\libnds9.a(interrupts.o)
                                0x1b4 (size before relaxing)

.debug_loc      0x00000000      0xce1
 *(.debug_loc)
 .debug_loc     0x00000000       0xbe ./basicObject.o
 .debug_loc     0x000000be      0x5e5 ./cDraw.o
 .debug_loc     0x000006a3       0xa5 ./cMath.o
 .debug_loc     0x00000748      0x165 ./cScreenManager.o
 .debug_loc     0x000008ad      0x185 ./main.o
 .debug_loc     0x00000a32       0x32 C:\devkitPro\libnds\lib\libnds9.a(initSystem.o)
 .debug_loc     0x00000a64       0x1f C:\devkitPro\libnds\lib\libnds9.a(touch.o)
 .debug_loc     0x00000a83      0x129 C:\devkitPro\libnds\lib\libnds9.a(video.o)
 .debug_loc     0x00000bac      0x135 C:\devkitPro\libnds\lib\libnds9.a(interrupts.o)

.debug_macinfo
 *(.debug_macinfo)

.debug_weaknames
 *(.debug_weaknames)

.debug_funcnames
 *(.debug_funcnames)

.debug_typenames
 *(.debug_typenames)

.debug_varnames
 *(.debug_varnames)

.stack          0x00080000        0x0
                0x00080000                _stack = .
 *(.stack)
LOAD c:/devkitpro/devkitarm/bin/../lib/gcc/arm-eabi/4.1.2/../../../../arm-eabi/lib/ds_arm9_crt0.o
LOAD c:/devkitpro/devkitarm/bin/../lib/gcc/arm-eabi/4.1.2/crti.o
LOAD c:/devkitpro/devkitarm/bin/../lib/gcc/arm-eabi/4.1.2/crtbegin.o
LOAD ./basicObject.o
LOAD ./cDraw.o
LOAD ./cMath.o
LOAD ./cScreenManager.o
LOAD ./main.o
LOAD ./menuButton.o
LOAD ./graphics/menu0.o
LOAD ./graphics/menu1.o
LOAD ./graphics/menu2.o
LOAD ./graphics/menu3.o
LOAD ./graphics/minimashers.o
LOAD ./graphics/splash.o
LOAD ./graphics/title.o
LOAD C:\devkitPro\libnds\lib\libnds9.a
LOAD C:\devkitPro\devkitARM\arm-eabi\lib\libstdc++.a
LOAD C:\devkitPro\devkitARM\arm-eabi\lib\libm.a
START GROUP
LOAD C:\devkitPro\devkitARM\lib\gcc\arm-eabi\4.1.2\libgcc.a
LOAD C:\devkitPro\devkitARM\arm-eabi\lib\libc.a
END GROUP
START GROUP
LOAD C:\devkitPro\devkitARM\arm-eabi\lib\libsysbase.a
LOAD C:\devkitPro\devkitARM\arm-eabi\lib\libc.a
END GROUP
LOAD c:/devkitpro/devkitarm/bin/../lib/gcc/arm-eabi/4.1.2/crtend.o
LOAD c:/devkitpro/devkitarm/bin/../lib/gcc/arm-eabi/4.1.2/crtn.o
OUTPUT(arm9.elf elf32-littlearm)

.ARM.attributes
                0x00000000       0x10
 .ARM.attributes
                0x00000000       0x1f c:/devkitpro/devkitarm/bin/../lib/gcc/arm-eabi/4.1.2/../../../../arm-eabi/lib/ds_arm9_crt0.o
 .ARM.attributes
                0x0000001f       0x1e c:/devkitpro/devkitarm/bin/../lib/gcc/arm-eabi/4.1.2/crti.o
 .ARM.attributes
                0x0000003d       0x1e c:/devkitpro/devkitarm/bin/../lib/gcc/arm-eabi/4.1.2/crtbegin.o
 .ARM.attributes
                0x0000005b       0x1e ./basicObject.o
 .ARM.attributes
                0x00000079       0x1e ./cDraw.o
 .ARM.attributes
                0x00000097       0x1e ./cMath.o
 .ARM.attributes
                0x000000b5       0x1e ./cScreenManager.o
 .ARM.attributes
                0x000000d3       0x1e ./main.o
 .ARM.attributes
                0x000000f1       0x1c ./menuButton.o
 .ARM.attributes
                0x0000010d       0x1c ./graphics/menu0.o
 .ARM.attributes
                0x00000129       0x1c ./graphics/menu1.o
 .ARM.attributes
                0x00000145       0x1c ./graphics/menu2.o
 .ARM.attributes
                0x00000161       0x1c ./graphics/menu3.o
 .ARM.attributes
                0x0000017d       0x1c ./graphics/minimashers.o
 .ARM.attributes
                0x00000199       0x1c ./graphics/splash.o
 .ARM.attributes
                0x000001b5       0x1c ./graphics/title.o
 .ARM.attributes
                0x000001d1       0x19 C:\devkitPro\libnds\lib\libnds9.a(initSystem.o)
 .ARM.attributes
                0x000001ea       0x19 C:\devkitPro\libnds\lib\libnds9.a(touch.o)
 .ARM.attributes
                0x00000203       0x19 C:\devkitPro\libnds\lib\libnds9.a(video.o)
 .ARM.attributes
                0x0000021c       0x19 C:\devkitPro\libnds\lib\libnds9.a(interrupts.o)
 .ARM.attributes
                0x00000235       0x19 C:\devkitPro\libnds\lib\libnds9.a(biosCalls.o)
 .ARM.attributes
                0x0000024e       0x19 C:\devkitPro\libnds\lib\libnds9.a(interruptDispatcher.o)
 .ARM.attributes
                0x00000267       0x1e C:\devkitPro\devkitARM\arm-eabi\lib\libstdc++.a(del_op.o)
 .ARM.attributes
                0x00000285       0x1e C:\devkitPro\devkitARM\arm-eabi\lib\libstdc++.a(eh_arm.o)
 .ARM.attributes
                0x000002a3       0x1e C:\devkitPro\devkitARM\arm-eabi\lib\libstdc++.a(eh_aux_runtime.o)
 .ARM.attributes
                0x000002c1       0x1e C:\devkitPro\devkitARM\arm-eabi\lib\libstdc++.a(eh_globals.o)
 .ARM.attributes
                0x000002df       0x1e C:\devkitPro\devkitARM\arm-eabi\lib\libstdc++.a(eh_personality.o)
 .ARM.attributes
                0x000002fd       0x1e C:\devkitPro\devkitARM\arm-eabi\lib\libstdc++.a(eh_terminate.o)
 .ARM.attributes
                0x0000031b       0x1c C:\devkitPro\devkitARM\arm-eabi\lib\libstdc++.a(eh_term_handler.o)
 .ARM.attributes
                0x00000337       0x1e C:\devkitPro\devkitARM\arm-eabi\lib\libstdc++.a(eh_throw.o)
 .ARM.attributes
                0x00000355       0x1c C:\devkitPro\devkitARM\arm-eabi\lib\libstdc++.a(eh_unex_handler.o)
 .ARM.attributes
                0x00000371       0x1e C:\devkitPro\devkitARM\arm-eabi\lib\libstdc++.a(new_op.o)
 .ARM.attributes
                0x0000038f       0x1e C:\devkitPro\devkitARM\arm-eabi\lib\libstdc++.a(tinfo.o)
 .ARM.attributes
                0x000003ad       0x1e C:\devkitPro\devkitARM\arm-eabi\lib\libstdc++.a(tinfo2.o)
 .ARM.attributes
                0x000003cb       0x1e C:\devkitPro\devkitARM\arm-eabi\lib\libstdc++.a(vterminate.o)
 .ARM.attributes
                0x000003e9       0x1e C:\devkitPro\devkitARM\arm-eabi\lib\libstdc++.a(cp-demangle.o)
 .ARM.attributes
                0x00000407       0x1e C:\devkitPro\devkitARM\arm-eabi\lib\libstdc++.a(eh_alloc.o)
 .ARM.attributes
                0x00000425       0x1e C:\devkitPro\devkitARM\arm-eabi\lib\libstdc++.a(eh_call.o)
 .ARM.attributes
                0x00000443       0x1e C:\devkitPro\devkitARM\arm-eabi\lib\libstdc++.a(eh_catch.o)
 .ARM.attributes
                0x00000461       0x1e C:\devkitPro\devkitARM\arm-eabi\lib\libstdc++.a(eh_exception.o)
 .ARM.attributes
                0x0000047f       0x1e C:\devkitPro\devkitARM\arm-eabi\lib\libstdc++.a(eh_type.o)
 .ARM.attributes
                0x0000049d       0x1e C:\devkitPro\devkitARM\arm-eabi\lib\libstdc++.a(new_handler.o)
 .ARM.attributes
                0x000004bb       0x1e C:\devkitPro\devkitARM\arm-eabi\lib\libm.a(lib_a-s_round.o)
 .ARM.attributes
                0x000004d9       0x1e C:\devkitPro\devkitARM\arm-eabi\lib\libm.a(lib_a-w_sqrt.o)
 .ARM.attributes
                0x000004f7       0x1e C:\devkitPro\devkitARM\arm-eabi\lib\libm.a(lib_a-e_sqrt.o)
 .ARM.attributes
                0x00000515       0x1e C:\devkitPro\devkitARM\arm-eabi\lib\libm.a(lib_a-s_isnand.o)
 .ARM.attributes
                0x00000533       0x1c C:\devkitPro\devkitARM\arm-eabi\lib\libm.a(lib_a-s_lib_ver.o)
 .ARM.attributes
                0x0000054f       0x1e C:\devkitPro\devkitARM\arm-eabi\lib\libm.a(lib_a-s_matherr.o)
 .ARM.attributes
                0x0000056d       0x1e C:\devkitPro\devkitARM\lib\gcc\arm-eabi\4.1.2\libgcc.a(_divsi3.o)
 .ARM.attributes
                0x0000058b       0x1e C:\devkitPro\devkitARM\lib\gcc\arm-eabi\4.1.2\libgcc.a(_dvmd_tls.o)
 .ARM.attributes
                0x000005a9       0x1e C:\devkitPro\devkitARM\lib\gcc\arm-eabi\4.1.2\libgcc.a(_addsubdf3.o)
 .ARM.attributes
                0x000005c7       0x1e C:\devkitPro\devkitARM\lib\gcc\arm-eabi\4.1.2\libgcc.a(_muldivdf3.o)
 .ARM.attributes
                0x000005e5       0x1e C:\devkitPro\devkitARM\lib\gcc\arm-eabi\4.1.2\libgcc.a(_cmpdf2.o)
 .ARM.attributes
                0x00000603       0x1e C:\devkitPro\devkitARM\lib\gcc\arm-eabi\4.1.2\libgcc.a(_fixdfsi.o)
 .ARM.attributes
                0x00000621       0x1e C:\devkitPro\devkitARM\lib\gcc\arm-eabi\4.1.2\libgcc.a(unwind-arm.o)
 .ARM.attributes
                0x0000063f       0x1e C:\devkitPro\devkitARM\lib\gcc\arm-eabi\4.1.2\libgcc.a(libunwind.o)
 .ARM.attributes
                0x0000065d       0x1e C:\devkitPro\devkitARM\lib\gcc\arm-eabi\4.1.2\libgcc.a(pr-support.o)
 .ARM.attributes
                0x0000067b       0x1e C:\devkitPro\devkitARM\arm-eabi\lib\libc.a(lib_a-abort.o)
 .ARM.attributes
                0x00000699       0x1e C:\devkitPro\devkitARM\arm-eabi\lib\libc.a(lib_a-assert.o)
 .ARM.attributes
                0x000006b7       0x1e C:\devkitPro\devkitARM\arm-eabi\lib\libc.a(lib_a-errno.o)
 .ARM.attributes
                0x000006d5       0x1e C:\devkitPro\devkitARM\arm-eabi\lib\libc.a(lib_a-fiprintf.o)
 .ARM.attributes
                0x000006f3       0x1e C:\devkitPro\devkitARM\arm-eabi\lib\libc.a(lib_a-fputc.o)
 .ARM.attributes
                0x00000711       0x1e C:\devkitPro\devkitARM\arm-eabi\lib\libc.a(lib_a-fputs.o)
 .ARM.attributes
                0x0000072f       0x1e C:\devkitPro\devkitARM\arm-eabi\lib\libc.a(lib_a-fvwrite.o)
 .ARM.attributes
                0x0000074d       0x1e C:\devkitPro\devkitARM\arm-eabi\lib\libc.a(lib_a-fwrite.o)
 .ARM.attributes
                0x0000076b       0x1c C:\devkitPro\devkitARM\arm-eabi\lib\libc.a(lib_a-impure.o)
 .ARM.attributes
                0x00000787       0x1e C:\devkitPro\devkitARM\arm-eabi\lib\libc.a(lib_a-init.o)
 .ARM.attributes
                0x000007a5       0x1e C:\devkitPro\devkitARM\arm-eabi\lib\libc.a(lib_a-malloc.o)
 .ARM.attributes
                0x000007c3       0x1e C:\devkitPro\devkitARM\arm-eabi\lib\libc.a(lib_a-mallocr.o)
 .ARM.attributes
                0x000007e1       0x1e C:\devkitPro\devkitARM\arm-eabi\lib\libc.a(lib_a-memchr.o)
 .ARM.attributes
                0x000007ff       0x1e C:\devkitPro\devkitARM\arm-eabi\lib\libc.a(lib_a-memcmp.o)
 .ARM.attributes
                0x0000081d       0x1e C:\devkitPro\devkitARM\arm-eabi\lib\libc.a(lib_a-memcpy.o)
 .ARM.attributes
                0x0000083b       0x1e C:\devkitPro\devkitARM\arm-eabi\lib\libc.a(lib_a-memmove.o)
 .ARM.attributes
                0x00000859       0x1e C:\devkitPro\devkitARM\arm-eabi\lib\libc.a(lib_a-memset.o)
 .ARM.attributes
                0x00000877       0x1e C:\devkitPro\devkitARM\arm-eabi\lib\libc.a(lib_a-mlock.o)
 .ARM.attributes
                0x00000895       0x1e C:\devkitPro\devkitARM\arm-eabi\lib\libc.a(lib_a-putc.o)
 .ARM.attributes
                0x000008b3       0x1e C:\devkitPro\devkitARM\arm-eabi\lib\libc.a(lib_a-realloc.o)
 .ARM.attributes
                0x000008d1       0x1e C:\devkitPro\devkitARM\arm-eabi\lib\libc.a(lib_a-reallocr.o)
 .ARM.attributes
                0x000008ef       0x1e C:\devkitPro\devkitARM\arm-eabi\lib\libc.a(lib_a-signal.o)
 .ARM.attributes
                0x0000090d       0x1e C:\devkitPro\devkitARM\arm-eabi\lib\libc.a(lib_a-strcat.o)
 .ARM.attributes
                0x0000092b       0x1e C:\devkitPro\devkitARM\arm-eabi\lib\libc.a(lib_a-strcmp.o)
 .ARM.attributes
                0x00000949       0x1e C:\devkitPro\devkitARM\arm-eabi\lib\libc.a(lib_a-strcpy.o)
 .ARM.attributes
                0x00000967       0x1e C:\devkitPro\devkitARM\arm-eabi\lib\libc.a(lib_a-strlen.o)
 .ARM.attributes
                0x00000985       0x1e C:\devkitPro\devkitARM\arm-eabi\lib\libc.a(lib_a-strncmp.o)
 .ARM.attributes
                0x000009a3       0x1e C:\devkitPro\devkitARM\arm-eabi\lib\libc.a(lib_a-vfiprintf.o)
 .ARM.attributes
                0x000009c1       0x1e C:\devkitPro\devkitARM\arm-eabi\lib\libc.a(lib_a-wbuf.o)
 .ARM.attributes
                0x000009df       0x1e C:\devkitPro\devkitARM\arm-eabi\lib\libc.a(lib_a-wcrtomb.o)
 .ARM.attributes
                0x000009fd       0x1e C:\devkitPro\devkitARM\arm-eabi\lib\libc.a(lib_a-wcsrtombs.o)
 .ARM.attributes
                0x00000a1b       0x1e C:\devkitPro\devkitARM\arm-eabi\lib\libc.a(lib_a-wctomb_r.o)
 .ARM.attributes
                0x00000a39       0x1e C:\devkitPro\devkitARM\arm-eabi\lib\libc.a(lib_a-wsetup.o)
 .ARM.attributes
                0x00000a57       0x1e C:\devkitPro\devkitARM\arm-eabi\lib\libc.a(lib_a-fflush.o)
 .ARM.attributes
                0x00000a75       0x1e C:\devkitPro\devkitARM\arm-eabi\lib\libc.a(lib_a-findfp.o)
 .ARM.attributes
                0x00000a93       0x1e C:\devkitPro\devkitARM\arm-eabi\lib\libc.a(lib_a-freer.o)
 .ARM.attributes
                0x00000ab1       0x1e C:\devkitPro\devkitARM\arm-eabi\lib\libc.a(lib_a-fwalk.o)
 .ARM.attributes
                0x00000acf       0x1e C:\devkitPro\devkitARM\arm-eabi\lib\libc.a(lib_a-locale.o)
 .ARM.attributes
                0x00000aed       0x1e C:\devkitPro\devkitARM\arm-eabi\lib\libc.a(lib_a-makebuf.o)
 .ARM.attributes
                0x00000b0b       0x1e C:\devkitPro\devkitARM\arm-eabi\lib\libc.a(lib_a-stdio.o)
 .ARM.attributes
                0x00000b29       0x1e C:\devkitPro\devkitARM\arm-eabi\lib\libc.a(lib_a-fclose.o)
 .ARM.attributes
                0x00000b47       0x1e C:\devkitPro\devkitARM\lib\gcc\arm-eabi\4.1.2\libgcc.a(_udivsi3.o)
 .ARM.attributes
                0x00000b65       0x1e C:\devkitPro\devkitARM\arm-eabi\lib\libsysbase.a(close.o)
 .ARM.attributes
                0x00000b83       0x1e C:\devkitPro\devkitARM\arm-eabi\lib\libsysbase.a(fstat.o)
 .ARM.attributes
                0x00000ba1       0x1e C:\devkitPro\devkitARM\arm-eabi\lib\libsysbase.a(getpid.o)
 .ARM.attributes
                0x00000bbf       0x1e C:\devkitPro\devkitARM\arm-eabi\lib\libsysbase.a(isatty.o)
 .ARM.attributes
                0x00000bdd       0x1e C:\devkitPro\devkitARM\arm-eabi\lib\libsysbase.a(kill.o)
 .ARM.attributes
                0x00000bfb       0x1e C:\devkitPro\devkitARM\arm-eabi\lib\libsysbase.a(lseek.o)
 .ARM.attributes
                0x00000c19       0x1e C:\devkitPro\devkitARM\arm-eabi\lib\libsysbase.a(read.o)
 .ARM.attributes
                0x00000c37       0x1e C:\devkitPro\devkitARM\arm-eabi\lib\libsysbase.a(sbrk.o)
 .ARM.attributes
                0x00000c55       0x1e C:\devkitPro\devkitARM\arm-eabi\lib\libsysbase.a(times.o)
 .ARM.attributes
                0x00000c73       0x1e C:\devkitPro\devkitARM\arm-eabi\lib\libsysbase.a(write.o)
 .ARM.attributes
                0x00000c91       0x1e C:\devkitPro\devkitARM\arm-eabi\lib\libsysbase.a(_exit.o)
 .ARM.attributes
                0x00000caf       0x1c C:\devkitPro\devkitARM\arm-eabi\lib\libsysbase.a(malloc_vars.o)
 .ARM.attributes
                0x00000ccb       0x1e C:\devkitPro\devkitARM\arm-eabi\lib\libsysbase.a(build_argv.o)
 .ARM.attributes
                0x00000ce9       0x1e C:\devkitPro\devkitARM\arm-eabi\lib\libsysbase.a(iosupport.o)
 .ARM.attributes
                0x00000d07       0x1c c:/devkitpro/devkitarm/bin/../lib/gcc/arm-eabi/4.1.2/crtend.o
 .ARM.attributes
                0x00000d23       0x1e c:/devkitpro/devkitarm/bin/../lib/gcc/arm-eabi/4.1.2/crtn.o

.debug_ranges   0x00000000      0x130
 .debug_ranges  0x00000000       0x48 ./cDraw.o
 .debug_ranges  0x00000048       0x70 ./cScreenManager.o
 .debug_ranges  0x000000b8       0x48 ./main.o
 .debug_ranges  0x00000100       0x30 C:\devkitPro\libnds\lib\libnds9.a(initSystem.o)
